(lp0
(dp1
S'DOMAIN_SIZE_X'
p2
I50
sS'DOMAIN_SIZE_Y'
p3
I50
sS'LINKED_CELL_SIZE_Y'
p4
I10
sS'LINKED_CELL_SIZE_X'
p5
I10
sS'MOL_X'
p6
I52
sS'MOL_Y'
p7
I44
sS'CUTOFF_RADIUS'
p8
cnumpy.core.multiarray
scalar
p9
(cnumpy
dtype
p10
(S'f8'
p11
I0
I1
tp12
Rp13
(I3
S'<'
p14
NNNI-1
I-1
I0
tp15
bS'hfffff\x00@'
p16
tp17
Rp18
sS'BLOCK_SIZE'
p19
I5
sa(dp20
g2
I50
sg3
I50
sg4
I10
sg5
I10
sg6
I23
sg7
I19
sg8
g9
(g13
S'\x00\x00\x00\x00\x00\x00\xf4?'
p21
tp22
Rp23
sg19
I5
sa(dp24
g2
I50
sg3
I50
sg4
I10
sg5
I10
sg6
I40
sg7
I24
sg8
g9
(g13
S'\x04\x00\x00\x00\x00\x00\n@'
p25
tp26
Rp27
sg19
I5
sa(dp28
g2
I50
sg3
I50
sg4
I10
sg5
I10
sg6
I42
sg7
I48
sg8
g9
(g13
S'jfffff\x08@'
p29
tp30
Rp31
sg19
I5
sa(dp32
g2
I50
sg3
I50
sg4
I10
sg5
I10
sg6
I35
sg7
I62
sg8
g9
(g13
S'\x03\x00\x00\x00\x00\x00\x06@'
p33
tp34
Rp35
sg19
I5
sa(dp36
g2
I50
sg3
I50
sg4
I10
sg5
I10
sg6
I24
sg7
I23
sg8
g9
(g13
S'kfffff\x0c@'
p37
tp38
Rp39
sg19
I5
sa(dp40
g2
I50
sg3
I50
sg4
I10
sg5
I10
sg6
I64
sg7
I33
sg8
g9
(g13
S'633333\x12@'
p41
tp42
Rp43
sg19
I5
sa(dp44
g2
I50
sg3
I50
sg4
I10
sg5
I10
sg6
I56
sg7
I15
sg8
g31
sg19
I5
sa(dp45
g2
I50
sg3
I50
sg4
I10
sg5
I10
sg6
I51
sg7
I35
sg8
g9
(g13
S'\xd2\xcc\xcc\xcc\xcc\xcc\x0e@'
p46
tp47
Rp48
sg19
I5
sa(dp49
g2
I50
sg3
I50
sg4
I10
sg5
I10
sg6
I20
sg7
I51
sg8
g9
(g13
S'\x9c\x99\x99\x99\x99\x99\x03@'
p50
tp51
Rp52
sg19
I5
sa(dp53
g2
I50
sg3
I50
sg4
I10
sg5
I10
sg6
I38
sg7
I32
sg8
g9
(g13
S'\x9d\x99\x99\x99\x99\x99\x07@'
p54
tp55
Rp56
sg19
I5
sa(dp57
g2
I50
sg3
I50
sg4
I10
sg5
I10
sg6
I34
sg7
I38
sg8
g9
(g13
S'\x02\x00\x00\x00\x00\x00\xfc?'
p58
tp59
Rp60
sg19
I5
sa(dp61
g2
I50
sg3
I50
sg4
I10
sg5
I10
sg6
I25
sg7
I30
sg8
g9
(g13
S'\xcf\xcc\xcc\xcc\xcc\xcc\x02@'
p62
tp63
Rp64
sg19
I5
sa(dp65
g2
I50
sg3
I50
sg4
I10
sg5
I10
sg6
I60
sg7
I35
sg8
g9
(g13
S'\x9a\x99\x99\x99\x99\x99\xf5?'
p66
tp67
Rp68
sg19
I5
sa(dp69
g2
I50
sg3
I50
sg4
I10
sg5
I10
sg6
I22
sg7
I48
sg8
g9
(g13
S'\x03\x00\x00\x00\x00\x00\x11@'
p70
tp71
Rp72
sg19
I5
sa(dp73
g2
I50
sg3
I50
sg4
I10
sg5
I10
sg6
I60
sg7
I17
sg8
g9
(g13
S'\xce\xcc\xcc\xcc\xcc\xcc\xf8?'
p74
tp75
Rp76
sg19
I5
sa(dp77
g2
I50
sg3
I50
sg4
I10
sg5
I10
sg6
I29
sg7
I44
sg8
g43
sg19
I5
sa(dp78
g2
I50
sg3
I50
sg4
I10
sg5
I10
sg6
I33
sg7
I55
sg8
g39
sg19
I5
sa(dp79
g2
I50
sg3
I50
sg4
I10
sg5
I10
sg6
I44
sg7
I17
sg8
g76
sg19
I5
sa(dp80
g2
I50
sg3
I50
sg4
I10
sg5
I10
sg6
I42
sg7
I47
sg8
g18
sg19
I5
sa(dp81
g2
I50
sg3
I50
sg4
I10
sg5
I10
sg6
I55
sg7
I64
sg8
g9
(g13
S'\xd0\xcc\xcc\xcc\xcc\xcc\x06@'
p82
tp83
Rp84
sg19
I5
sa(dp85
g2
I50
sg3
I50
sg4
I10
sg5
I10
sg6
I16
sg7
I58
sg8
g9
(g13
S'833333\r@'
p86
tp87
Rp88
sg19
I5
sa(dp89
g2
I50
sg3
I50
sg4
I10
sg5
I10
sg6
I61
sg7
I59
sg8
g76
sg19
I5
sa(dp90
g2
I50
sg3
I50
sg4
I10
sg5
I10
sg6
I50
sg7
I58
sg8
g39
sg19
I5
sa(dp91
g2
I50
sg3
I50
sg4
I10
sg5
I10
sg6
I20
sg7
I57
sg8
g9
(g13
S'\x9f\x99\x99\x99\x99\x99\x0f@'
p92
tp93
Rp94
sg19
I5
sa(dp95
g2
I50
sg3
I50
sg4
I10
sg5
I10
sg6
I25
sg7
I43
sg8
g9
(g13
S'ifffff\x04@'
p96
tp97
Rp98
sg19
I5
sa(dp99
g2
I50
sg3
I50
sg4
I10
sg5
I10
sg6
I41
sg7
I24
sg8
g9
(g13
S'jfffff\x13@'
p100
tp101
Rp102
sg19
I5
sa(dp103
g2
I50
sg3
I50
sg4
I10
sg5
I10
sg6
I57
sg7
I41
sg8
g72
sg19
I5
sa(dp104
g2
I50
sg3
I50
sg4
I10
sg5
I10
sg6
I22
sg7
I46
sg8
g94
sg19
I5
sa(dp105
g2
I50
sg3
I50
sg4
I10
sg5
I10
sg6
I44
sg7
I41
sg8
g9
(g13
S'\x9c\x99\x99\x99\x99\x99\xfd?'
p106
tp107
Rp108
sg19
I5
sa(dp109
g2
I50
sg3
I50
sg4
I10
sg5
I10
sg6
I34
sg7
I39
sg8
g52
sg19
I5
sa(dp110
g2
I50
sg3
I50
sg4
I10
sg5
I10
sg6
I30
sg7
I22
sg8
g9
(g13
S'\xd0\xcc\xcc\xcc\xcc\xcc\x13@'
p111
tp112
Rp113
sg19
I5
sa(dp114
g2
I50
sg3
I50
sg4
I10
sg5
I10
sg6
I50
sg7
I21
sg8
g102
sg19
I5
sa(dp115
g2
I50
sg3
I50
sg4
I10
sg5
I10
sg6
I47
sg7
I23
sg8
g9
(g13
S'633333\x05@'
p116
tp117
Rp118
sg19
I5
sa(dp119
g2
I50
sg3
I50
sg4
I10
sg5
I10
sg6
I45
sg7
I23
sg8
g43
sg19
I5
sa(dp120
g2
I50
sg3
I50
sg4
I10
sg5
I10
sg6
I58
sg7
I55
sg8
g64
sg19
I5
sa(dp121
g2
I50
sg3
I50
sg4
I10
sg5
I10
sg6
I25
sg7
I42
sg8
g64
sg19
I5
sa(dp122
g2
I50
sg3
I50
sg4
I10
sg5
I10
sg6
I44
sg7
I35
sg8
g68
sg19
I5
sa(dp123
g2
I50
sg3
I50
sg4
I10
sg5
I10
sg6
I25
sg7
I62
sg8
g9
(g13
S'733333\t@'
p124
tp125
Rp126
sg19
I5
sa(dp127
g2
I50
sg3
I50
sg4
I10
sg5
I10
sg6
I39
sg7
I27
sg8
g48
sg19
I5
sa(dp128
g2
I50
sg3
I50
sg4
I10
sg5
I10
sg6
I35
sg7
I49
sg8
g84
sg19
I5
sa(dp129
g2
I50
sg3
I50
sg4
I10
sg5
I10
sg6
I15
sg7
I55
sg8
g9
(g13
S'\x9e\x99\x99\x99\x99\x99\x0b@'
p130
tp131
Rp132
sg19
I5
sa(dp133
g2
I50
sg3
I50
sg4
I10
sg5
I10
sg6
I19
sg7
I62
sg8
g9
(g13
S'\x02\x00\x00\x00\x00\x00\x02@'
p134
tp135
Rp136
sg19
I5
sa(dp137
g2
I50
sg3
I50
sg4
I10
sg5
I10
sg6
I20
sg7
I34
sg8
g52
sg19
I5
sa(dp138
g2
I50
sg3
I50
sg4
I10
sg5
I10
sg6
I26
sg7
I15
sg8
g94
sg19
I5
sa(dp139
g2
I50
sg3
I50
sg4
I10
sg5
I10
sg6
I23
sg7
I15
sg8
g113
sg19
I5
sa(dp140
g2
I50
sg3
I50
sg4
I10
sg5
I10
sg6
I35
sg7
I31
sg8
g23
sg19
I5
sa(dp141
g2
I50
sg3
I50
sg4
I10
sg5
I10
sg6
I63
sg7
I43
sg8
g113
sg19
I5
sa(dp142
g2
I50
sg3
I50
sg4
I10
sg5
I10
sg6
I31
sg7
I20
sg8
g9
(g13
S'\xd1\xcc\xcc\xcc\xcc\xcc\n@'
p143
tp144
Rp145
sg19
I5
sa(dp146
g2
I50
sg3
I50
sg4
I10
sg5
I10
sg6
I21
sg7
I35
sg8
g76
sg19
I5
sa(dp147
g2
I50
sg3
I50
sg4
I10
sg5
I10
sg6
I21
sg7
I39
sg8
g68
sg19
I5
sa(dp148
g2
I50
sg3
I50
sg4
I10
sg5
I10
sg6
I26
sg7
I61
sg8
g113
sg19
I5
sa(dp149
g2
I50
sg3
I50
sg4
I10
sg5
I10
sg6
I41
sg7
I50
sg8
g88
sg19
I5
sa(dp150
g2
I50
sg3
I50
sg4
I10
sg5
I10
sg6
I49
sg7
I21
sg8
g27
sg19
I5
sa(dp151
g2
I50
sg3
I50
sg4
I10
sg5
I10
sg6
I46
sg7
I56
sg8
g52
sg19
I5
sa(dp152
g2
I50
sg3
I50
sg4
I10
sg5
I10
sg6
I28
sg7
I47
sg8
g9
(g13
S'\x05\x00\x00\x00\x00\x00\x0e@'
p153
tp154
Rp155
sg19
I5
sa(dp156
g2
I50
sg3
I50
sg4
I10
sg5
I10
sg6
I34
sg7
I29
sg8
g64
sg19
I5
sa(dp157
g2
I50
sg3
I50
sg4
I10
sg5
I10
sg6
I38
sg7
I62
sg8
g9
(g13
S'633333\xff?'
p158
tp159
Rp160
sg19
I5
sa(dp161
g2
I50
sg3
I50
sg4
I10
sg5
I10
sg6
I60
sg7
I32
sg8
g9
(g13
S'433333\xf7?'
p162
tp163
Rp164
sg19
I5
sa(dp165
g2
I50
sg3
I50
sg4
I10
sg5
I10
sg6
I62
sg7
I50
sg8
g9
(g13
S'hfffff\xfa?'
p166
tp167
Rp168
sg19
I5
sa(dp169
g2
I50
sg3
I50
sg4
I10
sg5
I10
sg6
I39
sg7
I27
sg8
g84
sg19
I5
sa(dp170
g2
I50
sg3
I50
sg4
I10
sg5
I10
sg6
I51
sg7
I25
sg8
g52
sg19
I5
sa(dp171
g2
I50
sg3
I50
sg4
I10
sg5
I10
sg6
I31
sg7
I22
sg8
g68
sg19
I5
sa(dp172
g2
I50
sg3
I50
sg4
I10
sg5
I10
sg6
I55
sg7
I22
sg8
g72
sg19
I5
sa(dp173
g2
I50
sg3
I50
sg4
I10
sg5
I10
sg6
I24
sg7
I17
sg8
g160
sg19
I5
sa(dp174
g2
I50
sg3
I50
sg4
I10
sg5
I10
sg6
I48
sg7
I55
sg8
g68
sg19
I5
sa(dp175
g2
I50
sg3
I50
sg4
I10
sg5
I10
sg6
I63
sg7
I57
sg8
g136
sg19
I5
sa(dp176
g2
I50
sg3
I50
sg4
I10
sg5
I10
sg6
I46
sg7
I57
sg8
g9
(g13
S'jfffff\x11@'
p177
tp178
Rp179
sg19
I5
sa(dp180
g2
I50
sg3
I50
sg4
I10
sg5
I10
sg6
I34
sg7
I60
sg8
g88
sg19
I5
sa(dp181
g2
I50
sg3
I50
sg4
I10
sg5
I10
sg6
I57
sg7
I56
sg8
g94
sg19
I5
sa(dp182
g2
I50
sg3
I50
sg4
I10
sg5
I10
sg6
I17
sg7
I45
sg8
g145
sg19
I5
sa(dp183
g2
I50
sg3
I50
sg4
I10
sg5
I10
sg6
I46
sg7
I32
sg8
g145
sg19
I5
sa(dp184
g2
I50
sg3
I50
sg4
I10
sg5
I10
sg6
I36
sg7
I61
sg8
g113
sg19
I5
sa(dp185
g2
I50
sg3
I50
sg4
I10
sg5
I10
sg6
I48
sg7
I19
sg8
g39
sg19
I5
sa(dp186
g2
I50
sg3
I50
sg4
I10
sg5
I10
sg6
I59
sg7
I49
sg8
g145
sg19
I5
sa(dp187
g2
I50
sg3
I50
sg4
I10
sg5
I10
sg6
I42
sg7
I19
sg8
g113
sg19
I5
sa(dp188
g2
I50
sg3
I50
sg4
I10
sg5
I10
sg6
I38
sg7
I54
sg8
g43
sg19
I5
sa(dp189
g2
I50
sg3
I50
sg4
I10
sg5
I10
sg6
I63
sg7
I37
sg8
g56
sg19
I5
sa(dp190
g2
I50
sg3
I50
sg4
I10
sg5
I10
sg6
I49
sg7
I54
sg8
g76
sg19
I5
sa(dp191
g2
I50
sg3
I50
sg4
I10
sg5
I10
sg6
I47
sg7
I57
sg8
g168
sg19
I5
sa(dp192
g2
I50
sg3
I50
sg4
I10
sg5
I10
sg6
I32
sg7
I61
sg8
g88
sg19
I5
sa(dp193
g2
I50
sg3
I50
sg4
I10
sg5
I10
sg6
I21
sg7
I16
sg8
g168
sg19
I5
sa(dp194
g2
I50
sg3
I50
sg4
I10
sg5
I10
sg6
I64
sg7
I26
sg8
g48
sg19
I5
sa(dp195
g2
I50
sg3
I50
sg4
I10
sg5
I10
sg6
I41
sg7
I51
sg8
g43
sg19
I5
sa(dp196
g2
I50
sg3
I50
sg4
I10
sg5
I10
sg6
I25
sg7
I53
sg8
g145
sg19
I5
sa(dp197
g2
I50
sg3
I50
sg4
I10
sg5
I10
sg6
I59
sg7
I27
sg8
g72
sg19
I5
sa(dp198
g2
I50
sg3
I50
sg4
I10
sg5
I10
sg6
I25
sg7
I18
sg8
g164
sg19
I5
sa(dp199
g2
I50
sg3
I50
sg4
I10
sg5
I10
sg6
I25
sg7
I38
sg8
g160
sg19
I5
sa(dp200
g2
I50
sg3
I50
sg4
I10
sg5
I10
sg6
I51
sg7
I62
sg8
g9
(g13
S'\x04\x00\x00\x00\x00\x00\x13@'
p201
tp202
Rp203
sg19
I5
sa(dp204
g2
I50
sg3
I50
sg4
I10
sg5
I10
sg6
I41
sg7
I16
sg8
g168
sg19
I5
sa(dp205
g2
I50
sg3
I50
sg4
I10
sg5
I10
sg6
I27
sg7
I64
sg8
g9
(g13
S'533333\x01@'
p206
tp207
Rp208
sg19
I5
sa(dp209
g2
I50
sg3
I50
sg4
I10
sg5
I10
sg6
I20
sg7
I63
sg8
g160
sg19
I5
sa(dp210
g2
I50
sg3
I50
sg4
I10
sg5
I10
sg6
I45
sg7
I39
sg8
g84
sg19
I5
sa(dp211
g2
I50
sg3
I50
sg4
I10
sg5
I10
sg6
I21
sg7
I39
sg8
g43
sg19
I5
sa(dp212
g2
I50
sg3
I50
sg4
I10
sg5
I10
sg6
I59
sg7
I32
sg8
g56
sg19
I5
sa(dp213
g2
I50
sg3
I50
sg4
I10
sg5
I10
sg6
I48
sg7
I58
sg8
g72
sg19
I5
sa(dp214
g2
I50
sg3
I50
sg4
I10
sg5
I10
sg6
I28
sg7
I63
sg8
g136
sg19
I5
sa(dp215
g2
I50
sg3
I50
sg4
I10
sg5
I10
sg6
I57
sg7
I30
sg8
g9
(g13
S'\x9d\x99\x99\x99\x99\x99\x12@'
p216
tp217
Rp218
sg19
I5
sa(dp219
g2
I50
sg3
I50
sg4
I10
sg5
I10
sg6
I21
sg7
I42
sg8
g118
sg19
I5
sa(dp220
g2
I50
sg3
I50
sg4
I10
sg5
I10
sg6
I55
sg7
I42
sg8
g23
sg19
I5
sa(dp221
g2
I50
sg3
I50
sg4
I10
sg5
I10
sg6
I57
sg7
I44
sg8
g9
(g13
S'\xd0\xcc\xcc\xcc\xcc\xcc\x11@'
p222
tp223
Rp224
sg19
I5
sa(dp225
g2
I50
sg3
I50
sg4
I10
sg5
I10
sg6
I24
sg7
I45
sg8
g27
sg19
I5
sa(dp226
g2
I50
sg3
I50
sg4
I10
sg5
I10
sg6
I41
sg7
I48
sg8
g203
sg19
I5
sa(dp227
g2
I50
sg3
I50
sg4
I10
sg5
I10
sg6
I58
sg7
I58
sg8
g224
sg19
I5
sa(dp228
g2
I50
sg3
I50
sg4
I10
sg5
I10
sg6
I42
sg7
I51
sg8
g64
sg19
I5
sa(dp229
g2
I50
sg3
I50
sg4
I10
sg5
I10
sg6
I62
sg7
I58
sg8
g164
sg19
I5
sa(dp230
g2
I50
sg3
I50
sg4
I10
sg5
I10
sg6
I52
sg7
I33
sg8
g52
sg19
I5
sa(dp231
g2
I50
sg3
I50
sg4
I10
sg5
I10
sg6
I24
sg7
I40
sg8
g168
sg19
I5
sa(dp232
g2
I50
sg3
I50
sg4
I10
sg5
I10
sg6
I61
sg7
I35
sg8
g76
sg19
I5
sa(dp233
g2
I50
sg3
I50
sg4
I10
sg5
I10
sg6
I15
sg7
I52
sg8
g27
sg19
I5
sa(dp234
g2
I50
sg3
I50
sg4
I10
sg5
I10
sg6
I22
sg7
I45
sg8
g88
sg19
I5
sa(dp235
g2
I50
sg3
I50
sg4
I10
sg5
I10
sg6
I61
sg7
I59
sg8
g31
sg19
I5
sa(dp236
g2
I50
sg3
I50
sg4
I10
sg5
I10
sg6
I44
sg7
I25
sg8
g179
sg19
I5
sa(dp237
g2
I50
sg3
I50
sg4
I10
sg5
I10
sg6
I35
sg7
I53
sg8
g23
sg19
I5
sa(dp238
g2
I50
sg3
I50
sg4
I10
sg5
I10
sg6
I49
sg7
I27
sg8
g68
sg19
I5
sa(dp239
g2
I50
sg3
I50
sg4
I10
sg5
I10
sg6
I61
sg7
I38
sg8
g94
sg19
I5
sa(dp240
g2
I50
sg3
I50
sg4
I10
sg5
I10
sg6
I27
sg7
I24
sg8
g64
sg19
I5
sa(dp241
g2
I50
sg3
I50
sg4
I10
sg5
I10
sg6
I43
sg7
I39
sg8
g113
sg19
I5
sa(dp242
g2
I50
sg3
I50
sg4
I10
sg5
I10
sg6
I21
sg7
I15
sg8
g94
sg19
I5
sa(dp243
g2
I50
sg3
I50
sg4
I10
sg5
I10
sg6
I45
sg7
I15
sg8
g155
sg19
I5
sa(dp244
g2
I50
sg3
I50
sg4
I10
sg5
I10
sg6
I41
sg7
I41
sg8
g27
sg19
I5
sa(dp245
g2
I50
sg3
I50
sg4
I10
sg5
I10
sg6
I19
sg7
I51
sg8
g9
(g13
S'\x9c\x99\x99\x99\x99\x99\x10@'
p246
tp247
Rp248
sg19
I5
sa(dp249
g2
I50
sg3
I50
sg4
I10
sg5
I10
sg6
I50
sg7
I46
sg8
g136
sg19
I5
sa(dp250
g2
I50
sg3
I50
sg4
I10
sg5
I10
sg6
I36
sg7
I25
sg8
g18
sg19
I5
sa(dp251
g2
I50
sg3
I50
sg4
I10
sg5
I10
sg6
I38
sg7
I62
sg8
g88
sg19
I5
sa(dp252
g2
I50
sg3
I50
sg4
I10
sg5
I10
sg6
I18
sg7
I53
sg8
g76
sg19
I5
sa(dp253
g2
I50
sg3
I50
sg4
I10
sg5
I10
sg6
I37
sg7
I20
sg8
g56
sg19
I5
sa(dp254
g2
I50
sg3
I50
sg4
I10
sg5
I10
sg6
I58
sg7
I48
sg8
g76
sg19
I5
sa(dp255
g2
I50
sg3
I50
sg4
I10
sg5
I10
sg6
I43
sg7
I56
sg8
g145
sg19
I5
sa(dp256
g2
I50
sg3
I50
sg4
I10
sg5
I10
sg6
I22
sg7
I44
sg8
g98
sg19
I5
sa(dp257
g2
I50
sg3
I50
sg4
I10
sg5
I10
sg6
I55
sg7
I38
sg8
g94
sg19
I5
sa(dp258
g2
I50
sg3
I50
sg4
I10
sg5
I10
sg6
I33
sg7
I32
sg8
g27
sg19
I5
sa(dp259
g2
I50
sg3
I50
sg4
I10
sg5
I10
sg6
I42
sg7
I22
sg8
g132
sg19
I5
sa(dp260
g2
I50
sg3
I50
sg4
I10
sg5
I10
sg6
I59
sg7
I50
sg8
g136
sg19
I5
sa(dp261
g2
I50
sg3
I50
sg4
I10
sg5
I10
sg6
I18
sg7
I38
sg8
g164
sg19
I5
sa(dp262
g2
I50
sg3
I50
sg4
I10
sg5
I10
sg6
I24
sg7
I49
sg8
g88
sg19
I5
sa(dp263
g2
I50
sg3
I50
sg4
I10
sg5
I10
sg6
I39
sg7
I19
sg8
g203
sg19
I5
sa(dp264
g2
I50
sg3
I50
sg4
I10
sg5
I10
sg6
I23
sg7
I23
sg8
g145
sg19
I5
sa(dp265
g2
I50
sg3
I50
sg4
I10
sg5
I10
sg6
I63
sg7
I47
sg8
g18
sg19
I5
sa(dp266
g2
I50
sg3
I50
sg4
I10
sg5
I10
sg6
I38
sg7
I48
sg8
g31
sg19
I5
sa(dp267
g2
I50
sg3
I50
sg4
I10
sg5
I10
sg6
I20
sg7
I63
sg8
g136
sg19
I5
sa(dp268
g2
I50
sg3
I50
sg4
I10
sg5
I10
sg6
I40
sg7
I43
sg8
g23
sg19
I5
sa(dp269
g2
I50
sg3
I50
sg4
I10
sg5
I10
sg6
I38
sg7
I20
sg8
g39
sg19
I5
sa(dp270
g2
I50
sg3
I50
sg4
I10
sg5
I10
sg6
I39
sg7
I48
sg8
g118
sg19
I5
sa(dp271
g2
I50
sg3
I50
sg4
I10
sg5
I10
sg6
I24
sg7
I16
sg8
g27
sg19
I5
sa(dp272
g2
I50
sg3
I50
sg4
I10
sg5
I10
sg6
I17
sg7
I30
sg8
g164
sg19
I5
sa(dp273
g2
I50
sg3
I50
sg4
I10
sg5
I10
sg6
I42
sg7
I28
sg8
g31
sg19
I5
sa(dp274
g2
I50
sg3
I50
sg4
I10
sg5
I10
sg6
I51
sg7
I29
sg8
g60
sg19
I5
sa(dp275
g2
I50
sg3
I50
sg4
I10
sg5
I10
sg6
I33
sg7
I64
sg8
g43
sg19
I5
sa(dp276
g2
I50
sg3
I50
sg4
I10
sg5
I10
sg6
I52
sg7
I43
sg8
g64
sg19
I5
sa(dp277
g2
I50
sg3
I50
sg4
I10
sg5
I10
sg6
I42
sg7
I40
sg8
g98
sg19
I5
sa(dp278
g2
I50
sg3
I50
sg4
I10
sg5
I10
sg6
I63
sg7
I58
sg8
g136
sg19
I5
sa(dp279
g2
I50
sg3
I50
sg4
I10
sg5
I10
sg6
I42
sg7
I49
sg8
g48
sg19
I5
sa(dp280
g2
I50
sg3
I50
sg4
I10
sg5
I10
sg6
I61
sg7
I43
sg8
g56
sg19
I5
sa(dp281
g2
I50
sg3
I50
sg4
I10
sg5
I10
sg6
I41
sg7
I17
sg8
g60
sg19
I5
sa(dp282
g2
I50
sg3
I50
sg4
I10
sg5
I10
sg6
I50
sg7
I55
sg8
g88
sg19
I5
sa(dp283
g2
I50
sg3
I50
sg4
I10
sg5
I10
sg6
I35
sg7
I51
sg8
g64
sg19
I5
sa(dp284
g2
I50
sg3
I50
sg4
I10
sg5
I10
sg6
I39
sg7
I64
sg8
g218
sg19
I5
sa(dp285
g2
I50
sg3
I50
sg4
I10
sg5
I10
sg6
I26
sg7
I36
sg8
g248
sg19
I5
sa(dp286
g2
I50
sg3
I50
sg4
I10
sg5
I10
sg6
I54
sg7
I24
sg8
g64
sg19
I5
sa(dp287
g2
I50
sg3
I50
sg4
I10
sg5
I10
sg6
I24
sg7
I34
sg8
g18
sg19
I5
sa(dp288
g2
I50
sg3
I50
sg4
I10
sg5
I10
sg6
I47
sg7
I15
sg8
g168
sg19
I5
sa(dp289
g2
I50
sg3
I50
sg4
I10
sg5
I10
sg6
I63
sg7
I38
sg8
g179
sg19
I5
sa(dp290
g2
I50
sg3
I50
sg4
I10
sg5
I10
sg6
I24
sg7
I33
sg8
g168
sg19
I5
sa(dp291
g2
I50
sg3
I50
sg4
I10
sg5
I10
sg6
I23
sg7
I38
sg8
g126
sg19
I5
sa(dp292
g2
I50
sg3
I50
sg4
I10
sg5
I10
sg6
I39
sg7
I24
sg8
g179
sg19
I5
sa(dp293
g2
I50
sg3
I50
sg4
I10
sg5
I10
sg6
I36
sg7
I20
sg8
g60
sg19
I5
sa(dp294
g2
I50
sg3
I50
sg4
I10
sg5
I10
sg6
I29
sg7
I16
sg8
g118
sg19
I5
sa(dp295
g2
I50
sg3
I50
sg4
I10
sg5
I10
sg6
I27
sg7
I25
sg8
g126
sg19
I5
sa(dp296
g2
I50
sg3
I50
sg4
I10
sg5
I10
sg6
I22
sg7
I27
sg8
g208
sg19
I5
sa(dp297
g2
I50
sg3
I50
sg4
I10
sg5
I10
sg6
I19
sg7
I30
sg8
g31
sg19
I5
sa(dp298
g2
I50
sg3
I50
sg4
I10
sg5
I10
sg6
I24
sg7
I27
sg8
g136
sg19
I5
sa(dp299
g2
I50
sg3
I50
sg4
I10
sg5
I10
sg6
I34
sg7
I16
sg8
g52
sg19
I5
sa(dp300
g2
I50
sg3
I50
sg4
I10
sg5
I10
sg6
I64
sg7
I37
sg8
g27
sg19
I5
sa(dp301
g2
I50
sg3
I50
sg4
I10
sg5
I10
sg6
I30
sg7
I22
sg8
g208
sg19
I5
sa(dp302
g2
I50
sg3
I50
sg4
I10
sg5
I10
sg6
I57
sg7
I59
sg8
g56
sg19
I5
sa(dp303
g2
I50
sg3
I50
sg4
I10
sg5
I10
sg6
I15
sg7
I62
sg8
g98
sg19
I5
sa(dp304
g2
I50
sg3
I50
sg4
I10
sg5
I10
sg6
I29
sg7
I57
sg8
g126
sg19
I5
sa(dp305
g2
I50
sg3
I50
sg4
I10
sg5
I10
sg6
I56
sg7
I57
sg8
g72
sg19
I5
sa(dp306
g2
I50
sg3
I50
sg4
I10
sg5
I10
sg6
I59
sg7
I30
sg8
g35
sg19
I5
sa(dp307
g2
I50
sg3
I50
sg4
I10
sg5
I10
sg6
I43
sg7
I18
sg8
g136
sg19
I5
sa(dp308
g2
I50
sg3
I50
sg4
I10
sg5
I10
sg6
I30
sg7
I20
sg8
g52
sg19
I5
sa(dp309
g2
I50
sg3
I50
sg4
I10
sg5
I10
sg6
I46
sg7
I62
sg8
g164
sg19
I5
sa(dp310
g2
I50
sg3
I50
sg4
I10
sg5
I10
sg6
I44
sg7
I34
sg8
g35
sg19
I5
sa(dp311
g2
I50
sg3
I50
sg4
I10
sg5
I10
sg6
I55
sg7
I42
sg8
g118
sg19
I5
sa(dp312
g2
I50
sg3
I50
sg4
I10
sg5
I10
sg6
I61
sg7
I41
sg8
g64
sg19
I5
sa(dp313
g2
I50
sg3
I50
sg4
I10
sg5
I10
sg6
I63
sg7
I28
sg8
g113
sg19
I5
sa(dp314
g2
I50
sg3
I50
sg4
I10
sg5
I10
sg6
I20
sg7
I38
sg8
g52
sg19
I5
sa(dp315
g2
I50
sg3
I50
sg4
I10
sg5
I10
sg6
I20
sg7
I25
sg8
g9
(g13
S'633333\x10@'
p316
tp317
Rp318
sg19
I5
sa(dp319
g2
I50
sg3
I50
sg4
I10
sg5
I10
sg6
I50
sg7
I38
sg8
g31
sg19
I5
sa(dp320
g2
I50
sg3
I50
sg4
I10
sg5
I10
sg6
I24
sg7
I50
sg8
g248
sg19
I5
sa(dp321
g2
I50
sg3
I50
sg4
I10
sg5
I10
sg6
I56
sg7
I55
sg8
g164
sg19
I5
sa(dp322
g2
I50
sg3
I50
sg4
I10
sg5
I10
sg6
I24
sg7
I63
sg8
g48
sg19
I5
sa(dp323
g2
I50
sg3
I50
sg4
I10
sg5
I10
sg6
I23
sg7
I54
sg8
g68
sg19
I5
sa(dp324
g2
I50
sg3
I50
sg4
I10
sg5
I10
sg6
I20
sg7
I15
sg8
g318
sg19
I5
sa(dp325
g2
I50
sg3
I50
sg4
I10
sg5
I10
sg6
I40
sg7
I44
sg8
g88
sg19
I5
sa(dp326
g2
I50
sg3
I50
sg4
I10
sg5
I10
sg6
I55
sg7
I25
sg8
g203
sg19
I5
sa(dp327
g2
I50
sg3
I50
sg4
I10
sg5
I10
sg6
I64
sg7
I36
sg8
g35
sg19
I5
sa(dp328
g2
I50
sg3
I50
sg4
I10
sg5
I10
sg6
I36
sg7
I42
sg8
g18
sg19
I5
sa(dp329
g2
I50
sg3
I50
sg4
I10
sg5
I10
sg6
I41
sg7
I53
sg8
g126
sg19
I5
sa(dp330
g2
I50
sg3
I50
sg4
I10
sg5
I10
sg6
I50
sg7
I62
sg8
g31
sg19
I5
sa(dp331
g2
I50
sg3
I50
sg4
I10
sg5
I10
sg6
I17
sg7
I24
sg8
g43
sg19
I5
sa(dp332
g2
I50
sg3
I50
sg4
I10
sg5
I10
sg6
I34
sg7
I41
sg8
g145
sg19
I5
sa(dp333
g2
I50
sg3
I50
sg4
I10
sg5
I10
sg6
I52
sg7
I52
sg8
g52
sg19
I5
sa(dp334
g2
I50
sg3
I50
sg4
I10
sg5
I10
sg6
I51
sg7
I16
sg8
g126
sg19
I5
sa(dp335
g2
I50
sg3
I50
sg4
I10
sg5
I10
sg6
I49
sg7
I43
sg8
g43
sg19
I5
sa(dp336
g2
I50
sg3
I50
sg4
I10
sg5
I10
sg6
I16
sg7
I54
sg8
g118
sg19
I5
sa(dp337
g2
I50
sg3
I50
sg4
I10
sg5
I10
sg6
I40
sg7
I50
sg8
g35
sg19
I5
sa(dp338
g2
I50
sg3
I50
sg4
I10
sg5
I10
sg6
I32
sg7
I54
sg8
g27
sg19
I5
sa(dp339
g2
I50
sg3
I50
sg4
I10
sg5
I10
sg6
I24
sg7
I37
sg8
g35
sg19
I5
sa(dp340
g2
I50
sg3
I50
sg4
I10
sg5
I10
sg6
I43
sg7
I40
sg8
g88
sg19
I5
sa(dp341
g2
I50
sg3
I50
sg4
I10
sg5
I10
sg6
I57
sg7
I31
sg8
g27
sg19
I5
sa(dp342
g2
I50
sg3
I50
sg4
I10
sg5
I10
sg6
I29
sg7
I24
sg8
g31
sg19
I5
sa(dp343
g2
I50
sg3
I50
sg4
I10
sg5
I10
sg6
I18
sg7
I54
sg8
g224
sg19
I5
sa(dp344
g2
I50
sg3
I50
sg4
I10
sg5
I10
sg6
I53
sg7
I43
sg8
g60
sg19
I5
sa(dp345
g2
I50
sg3
I50
sg4
I10
sg5
I10
sg6
I53
sg7
I60
sg8
g27
sg19
I5
sa(dp346
g2
I50
sg3
I50
sg4
I10
sg5
I10
sg6
I45
sg7
I58
sg8
g72
sg19
I5
sa(dp347
g2
I50
sg3
I50
sg4
I10
sg5
I10
sg6
I17
sg7
I40
sg8
g118
sg19
I5
sa(dp348
g2
I50
sg3
I50
sg4
I10
sg5
I10
sg6
I23
sg7
I40
sg8
g126
sg19
I5
sa(dp349
g2
I50
sg3
I50
sg4
I10
sg5
I10
sg6
I48
sg7
I64
sg8
g18
sg19
I5
sa(dp350
g2
I50
sg3
I50
sg4
I10
sg5
I10
sg6
I21
sg7
I54
sg8
g88
sg19
I5
sa(dp351
g2
I50
sg3
I50
sg4
I10
sg5
I10
sg6
I47
sg7
I18
sg8
g179
sg19
I5
sa(dp352
g2
I50
sg3
I50
sg4
I10
sg5
I10
sg6
I46
sg7
I50
sg8
g35
sg19
I5
sa(dp353
g2
I50
sg3
I50
sg4
I10
sg5
I10
sg6
I64
sg7
I37
sg8
g145
sg19
I5
sa(dp354
g2
I50
sg3
I50
sg4
I10
sg5
I10
sg6
I56
sg7
I29
sg8
g23
sg19
I5
sa(dp355
g2
I50
sg3
I50
sg4
I10
sg5
I10
sg6
I37
sg7
I40
sg8
g48
sg19
I5
sa(dp356
g2
I50
sg3
I50
sg4
I10
sg5
I10
sg6
I23
sg7
I64
sg8
g94
sg19
I5
sa(dp357
g2
I50
sg3
I50
sg4
I10
sg5
I10
sg6
I39
sg7
I35
sg8
g56
sg19
I5
sa(dp358
g2
I50
sg3
I50
sg4
I10
sg5
I10
sg6
I38
sg7
I63
sg8
g88
sg19
I5
sa(dp359
g2
I50
sg3
I50
sg4
I10
sg5
I10
sg6
I63
sg7
I21
sg8
g108
sg19
I5
sa(dp360
g2
I50
sg3
I50
sg4
I10
sg5
I10
sg6
I45
sg7
I38
sg8
g179
sg19
I5
sa(dp361
g2
I50
sg3
I50
sg4
I10
sg5
I10
sg6
I27
sg7
I19
sg8
g64
sg19
I5
sa(dp362
g2
I50
sg3
I50
sg4
I10
sg5
I10
sg6
I32
sg7
I35
sg8
g48
sg19
I5
sa(dp363
g2
I50
sg3
I50
sg4
I10
sg5
I10
sg6
I39
sg7
I24
sg8
g108
sg19
I5
sa(dp364
g2
I50
sg3
I50
sg4
I10
sg5
I10
sg6
I48
sg7
I46
sg8
g23
sg19
I5
sa(dp365
g2
I50
sg3
I50
sg4
I10
sg5
I10
sg6
I25
sg7
I50
sg8
g168
sg19
I5
sa(dp366
g2
I50
sg3
I50
sg4
I10
sg5
I10
sg6
I23
sg7
I35
sg8
g145
sg19
I5
sa(dp367
g2
I50
sg3
I50
sg4
I10
sg5
I10
sg6
I48
sg7
I44
sg8
g31
sg19
I5
sa(dp368
g2
I50
sg3
I50
sg4
I10
sg5
I10
sg6
I51
sg7
I41
sg8
g94
sg19
I5
sa(dp369
g2
I50
sg3
I50
sg4
I10
sg5
I10
sg6
I43
sg7
I41
sg8
g318
sg19
I5
sa(dp370
g2
I50
sg3
I50
sg4
I10
sg5
I10
sg6
I55
sg7
I45
sg8
g118
sg19
I5
sa(dp371
g2
I50
sg3
I50
sg4
I10
sg5
I10
sg6
I29
sg7
I44
sg8
g168
sg19
I5
sa(dp372
g2
I50
sg3
I50
sg4
I10
sg5
I10
sg6
I62
sg7
I27
sg8
g160
sg19
I5
sa(dp373
g2
I50
sg3
I50
sg4
I10
sg5
I10
sg6
I62
sg7
I25
sg8
g39
sg19
I5
sa(dp374
g2
I50
sg3
I50
sg4
I10
sg5
I10
sg6
I21
sg7
I47
sg8
g76
sg19
I5
sa(dp375
g2
I50
sg3
I50
sg4
I10
sg5
I10
sg6
I35
sg7
I29
sg8
g113
sg19
I5
sa(dp376
g2
I50
sg3
I50
sg4
I10
sg5
I10
sg6
I31
sg7
I49
sg8
g224
sg19
I5
sa(dp377
g2
I50
sg3
I50
sg4
I10
sg5
I10
sg6
I28
sg7
I61
sg8
g84
sg19
I5
sa(dp378
g2
I50
sg3
I50
sg4
I10
sg5
I10
sg6
I61
sg7
I23
sg8
g179
sg19
I5
sa(dp379
g2
I50
sg3
I50
sg4
I10
sg5
I10
sg6
I44
sg7
I55
sg8
g98
sg19
I5
sa(dp380
g2
I50
sg3
I50
sg4
I10
sg5
I10
sg6
I56
sg7
I26
sg8
g88
sg19
I5
sa(dp381
g2
I50
sg3
I50
sg4
I10
sg5
I10
sg6
I43
sg7
I35
sg8
g27
sg19
I5
sa(dp382
g2
I50
sg3
I50
sg4
I10
sg5
I10
sg6
I18
sg7
I61
sg8
g179
sg19
I5
sa(dp383
g2
I50
sg3
I50
sg4
I10
sg5
I10
sg6
I37
sg7
I23
sg8
g179
sg19
I5
sa(dp384
g2
I50
sg3
I50
sg4
I10
sg5
I10
sg6
I35
sg7
I55
sg8
g94
sg19
I5
sa(dp385
g2
I50
sg3
I50
sg4
I10
sg5
I10
sg6
I62
sg7
I23
sg8
g68
sg19
I5
sa(dp386
g2
I50
sg3
I50
sg4
I10
sg5
I10
sg6
I25
sg7
I31
sg8
g27
sg19
I5
sa(dp387
g2
I50
sg3
I50
sg4
I10
sg5
I10
sg6
I54
sg7
I37
sg8
g224
sg19
I5
sa(dp388
g2
I50
sg3
I50
sg4
I10
sg5
I10
sg6
I20
sg7
I52
sg8
g60
sg19
I5
sa(dp389
g2
I50
sg3
I50
sg4
I10
sg5
I10
sg6
I47
sg7
I48
sg8
g23
sg19
I5
sa(dp390
g2
I50
sg3
I50
sg4
I10
sg5
I10
sg6
I28
sg7
I32
sg8
g136
sg19
I5
sa(dp391
g2
I50
sg3
I50
sg4
I10
sg5
I10
sg6
I37
sg7
I28
sg8
g43
sg19
I5
sa(dp392
g2
I50
sg3
I50
sg4
I10
sg5
I10
sg6
I47
sg7
I18
sg8
g31
sg19
I5
sa(dp393
g2
I50
sg3
I50
sg4
I10
sg5
I10
sg6
I56
sg7
I18
sg8
g76
sg19
I5
sa(dp394
g2
I50
sg3
I50
sg4
I10
sg5
I10
sg6
I51
sg7
I19
sg8
g76
sg19
I5
sa(dp395
g2
I50
sg3
I50
sg4
I10
sg5
I10
sg6
I24
sg7
I32
sg8
g164
sg19
I5
sa(dp396
g2
I50
sg3
I50
sg4
I10
sg5
I10
sg6
I63
sg7
I50
sg8
g132
sg19
I5
sa(dp397
g2
I50
sg3
I50
sg4
I10
sg5
I10
sg6
I63
sg7
I64
sg8
g56
sg19
I5
sa(dp398
g2
I50
sg3
I50
sg4
I10
sg5
I10
sg6
I23
sg7
I52
sg8
g164
sg19
I5
sa(dp399
g2
I50
sg3
I50
sg4
I10
sg5
I10
sg6
I62
sg7
I42
sg8
g60
sg19
I5
sa(dp400
g2
I50
sg3
I50
sg4
I10
sg5
I10
sg6
I37
sg7
I62
sg8
g218
sg19
I5
sa(dp401
g2
I50
sg3
I50
sg4
I10
sg5
I10
sg6
I61
sg7
I54
sg8
g160
sg19
I5
sa(dp402
g2
I50
sg3
I50
sg4
I10
sg5
I10
sg6
I55
sg7
I30
sg8
g145
sg19
I5
sa(dp403
g2
I50
sg3
I50
sg4
I10
sg5
I10
sg6
I43
sg7
I63
sg8
g35
sg19
I5
sa(dp404
g2
I50
sg3
I50
sg4
I10
sg5
I10
sg6
I40
sg7
I31
sg8
g126
sg19
I5
sa(dp405
g2
I50
sg3
I50
sg4
I10
sg5
I10
sg6
I47
sg7
I19
sg8
g84
sg19
I5
sa(dp406
g2
I50
sg3
I50
sg4
I10
sg5
I10
sg6
I24
sg7
I57
sg8
g318
sg19
I5
sa(dp407
g2
I50
sg3
I50
sg4
I10
sg5
I10
sg6
I40
sg7
I46
sg8
g136
sg19
I5
sa(dp408
g2
I50
sg3
I50
sg4
I10
sg5
I10
sg6
I35
sg7
I61
sg8
g68
sg19
I5
sa(dp409
g2
I50
sg3
I50
sg4
I10
sg5
I10
sg6
I57
sg7
I41
sg8
g208
sg19
I5
sa(dp410
g2
I50
sg3
I50
sg4
I10
sg5
I10
sg6
I64
sg7
I39
sg8
g43
sg19
I5
sa(dp411
g2
I50
sg3
I50
sg4
I10
sg5
I10
sg6
I32
sg7
I49
sg8
g84
sg19
I5
sa(dp412
g2
I50
sg3
I50
sg4
I10
sg5
I10
sg6
I58
sg7
I38
sg8
g64
sg19
I5
sa(dp413
g2
I50
sg3
I50
sg4
I10
sg5
I10
sg6
I37
sg7
I50
sg8
g94
sg19
I5
sa(dp414
g2
I50
sg3
I50
sg4
I10
sg5
I10
sg6
I46
sg7
I55
sg8
g126
sg19
I5
sa(dp415
g2
I50
sg3
I50
sg4
I10
sg5
I10
sg6
I31
sg7
I21
sg8
g248
sg19
I5
sa(dp416
g2
I50
sg3
I50
sg4
I10
sg5
I10
sg6
I52
sg7
I26
sg8
g84
sg19
I5
sa(dp417
g2
I50
sg3
I50
sg4
I10
sg5
I10
sg6
I57
sg7
I35
sg8
g43
sg19
I5
sa(dp418
g2
I50
sg3
I50
sg4
I10
sg5
I10
sg6
I21
sg7
I46
sg8
g168
sg19
I5
sa(dp419
g2
I50
sg3
I50
sg4
I10
sg5
I10
sg6
I34
sg7
I32
sg8
g52
sg19
I5
sa(dp420
g2
I50
sg3
I50
sg4
I10
sg5
I10
sg6
I44
sg7
I31
sg8
g118
sg19
I5
sa(dp421
g2
I50
sg3
I50
sg4
I10
sg5
I10
sg6
I25
sg7
I63
sg8
g64
sg19
I5
sa(dp422
g2
I50
sg3
I50
sg4
I10
sg5
I10
sg6
I39
sg7
I17
sg8
g35
sg19
I5
sa(dp423
g2
I50
sg3
I50
sg4
I10
sg5
I10
sg6
I34
sg7
I20
sg8
g160
sg19
I5
sa(dp424
g2
I50
sg3
I50
sg4
I10
sg5
I10
sg6
I39
sg7
I44
sg8
g203
sg19
I5
sa(dp425
g2
I50
sg3
I50
sg4
I10
sg5
I10
sg6
I64
sg7
I34
sg8
g84
sg19
I5
sa(dp426
g2
I50
sg3
I50
sg4
I10
sg5
I10
sg6
I34
sg7
I52
sg8
g318
sg19
I5
sa(dp427
g2
I50
sg3
I50
sg4
I10
sg5
I10
sg6
I46
sg7
I45
sg8
g98
sg19
I5
sa(dp428
g2
I50
sg3
I50
sg4
I10
sg5
I10
sg6
I23
sg7
I48
sg8
g88
sg19
I5
sa(dp429
g2
I50
sg3
I50
sg4
I10
sg5
I10
sg6
I36
sg7
I41
sg8
g84
sg19
I5
sa(dp430
g2
I50
sg3
I50
sg4
I10
sg5
I10
sg6
I30
sg7
I59
sg8
g160
sg19
I5
sa(dp431
g2
I50
sg3
I50
sg4
I10
sg5
I10
sg6
I20
sg7
I38
sg8
g132
sg19
I5
sa(dp432
g2
I50
sg3
I50
sg4
I10
sg5
I10
sg6
I55
sg7
I23
sg8
g98
sg19
I5
sa(dp433
g2
I50
sg3
I50
sg4
I10
sg5
I10
sg6
I24
sg7
I43
sg8
g18
sg19
I5
sa(dp434
g2
I50
sg3
I50
sg4
I10
sg5
I10
sg6
I22
sg7
I21
sg8
g248
sg19
I5
sa(dp435
g2
I50
sg3
I50
sg4
I10
sg5
I10
sg6
I45
sg7
I29
sg8
g88
sg19
I5
sa(dp436
g2
I50
sg3
I50
sg4
I10
sg5
I10
sg6
I47
sg7
I19
sg8
g43
sg19
I5
sa(dp437
g2
I50
sg3
I50
sg4
I10
sg5
I10
sg6
I62
sg7
I43
sg8
g88
sg19
I5
sa(dp438
g2
I50
sg3
I50
sg4
I10
sg5
I10
sg6
I27
sg7
I20
sg8
g208
sg19
I5
sa(dp439
g2
I50
sg3
I50
sg4
I10
sg5
I10
sg6
I19
sg7
I20
sg8
g72
sg19
I5
sa(dp440
g2
I50
sg3
I50
sg4
I10
sg5
I10
sg6
I30
sg7
I43
sg8
g76
sg19
I5
sa(dp441
g2
I50
sg3
I50
sg4
I10
sg5
I10
sg6
I49
sg7
I62
sg8
g160
sg19
I5
sa(dp442
g2
I50
sg3
I50
sg4
I10
sg5
I10
sg6
I17
sg7
I41
sg8
g136
sg19
I5
sa(dp443
g2
I50
sg3
I50
sg4
I10
sg5
I10
sg6
I45
sg7
I29
sg8
g18
sg19
I5
sa(dp444
g2
I50
sg3
I50
sg4
I10
sg5
I10
sg6
I56
sg7
I39
sg8
g27
sg19
I5
sa(dp445
g2
I50
sg3
I50
sg4
I10
sg5
I10
sg6
I52
sg7
I30
sg8
g60
sg19
I5
sa(dp446
g2
I50
sg3
I50
sg4
I10
sg5
I10
sg6
I49
sg7
I34
sg8
g56
sg19
I5
sa(dp447
g2
I50
sg3
I50
sg4
I10
sg5
I10
sg6
I32
sg7
I17
sg8
g68
sg19
I5
sa(dp448
g2
I50
sg3
I50
sg4
I10
sg5
I10
sg6
I50
sg7
I45
sg8
g52
sg19
I5
sa(dp449
g2
I50
sg3
I50
sg4
I10
sg5
I10
sg6
I55
sg7
I23
sg8
g168
sg19
I5
sa(dp450
g2
I50
sg3
I50
sg4
I10
sg5
I10
sg6
I30
sg7
I42
sg8
g27
sg19
I5
sa(dp451
g2
I50
sg3
I50
sg4
I10
sg5
I10
sg6
I28
sg7
I50
sg8
g43
sg19
I5
sa(dp452
g2
I50
sg3
I50
sg4
I10
sg5
I10
sg6
I59
sg7
I63
sg8
g224
sg19
I5
sa(dp453
g2
I50
sg3
I50
sg4
I10
sg5
I10
sg6
I62
sg7
I62
sg8
g84
sg19
I5
sa(dp454
g2
I50
sg3
I50
sg4
I10
sg5
I10
sg6
I18
sg7
I35
sg8
g27
sg19
I5
sa(dp455
g2
I50
sg3
I50
sg4
I10
sg5
I10
sg6
I20
sg7
I64
sg8
g60
sg19
I5
sa(dp456
g2
I50
sg3
I50
sg4
I10
sg5
I10
sg6
I19
sg7
I51
sg8
g60
sg19
I5
sa(dp457
g2
I50
sg3
I50
sg4
I10
sg5
I10
sg6
I23
sg7
I53
sg8
g208
sg19
I5
sa(dp458
g2
I50
sg3
I50
sg4
I10
sg5
I10
sg6
I48
sg7
I41
sg8
g118
sg19
I5
sa(dp459
g2
I50
sg3
I50
sg4
I10
sg5
I10
sg6
I48
sg7
I32
sg8
g56
sg19
I5
sa(dp460
g2
I50
sg3
I50
sg4
I10
sg5
I10
sg6
I48
sg7
I27
sg8
g35
sg19
I5
sa(dp461
g2
I50
sg3
I50
sg4
I10
sg5
I10
sg6
I60
sg7
I38
sg8
g39
sg19
I5
sa(dp462
g2
I50
sg3
I50
sg4
I10
sg5
I10
sg6
I59
sg7
I55
sg8
g31
sg19
I5
sa(dp463
g2
I50
sg3
I50
sg4
I10
sg5
I10
sg6
I41
sg7
I16
sg8
g88
sg19
I5
sa(dp464
g2
I50
sg3
I50
sg4
I10
sg5
I10
sg6
I61
sg7
I62
sg8
g43
sg19
I5
sa(dp465
g2
I50
sg3
I50
sg4
I10
sg5
I10
sg6
I35
sg7
I36
sg8
g208
sg19
I5
sa(dp466
g2
I50
sg3
I50
sg4
I10
sg5
I10
sg6
I57
sg7
I54
sg8
g52
sg19
I5
sa(dp467
g2
I50
sg3
I50
sg4
I10
sg5
I10
sg6
I38
sg7
I38
sg8
g132
sg19
I5
sa(dp468
g2
I50
sg3
I50
sg4
I10
sg5
I10
sg6
I56
sg7
I25
sg8
g102
sg19
I5
sa(dp469
g2
I50
sg3
I50
sg4
I10
sg5
I10
sg6
I24
sg7
I29
sg8
g31
sg19
I5
sa(dp470
g2
I50
sg3
I50
sg4
I10
sg5
I10
sg6
I54
sg7
I57
sg8
g23
sg19
I5
sa(dp471
g2
I50
sg3
I50
sg4
I10
sg5
I10
sg6
I48
sg7
I35
sg8
g132
sg19
I5
sa(dp472
g2
I50
sg3
I50
sg4
I10
sg5
I10
sg6
I50
sg7
I26
sg8
g52
sg19
I5
sa(dp473
g2
I50
sg3
I50
sg4
I10
sg5
I10
sg6
I39
sg7
I54
sg8
g145
sg19
I5
sa(dp474
g2
I50
sg3
I50
sg4
I10
sg5
I10
sg6
I31
sg7
I43
sg8
g76
sg19
I5
sa(dp475
g2
I50
sg3
I50
sg4
I10
sg5
I10
sg6
I38
sg7
I36
sg8
g35
sg19
I5
sa(dp476
g2
I50
sg3
I50
sg4
I10
sg5
I10
sg6
I51
sg7
I48
sg8
g113
sg19
I5
sa(dp477
g2
I50
sg3
I50
sg4
I10
sg5
I10
sg6
I64
sg7
I62
sg8
g64
sg19
I5
sa(dp478
g2
I50
sg3
I50
sg4
I10
sg5
I10
sg6
I33
sg7
I49
sg8
g132
sg19
I5
sa(dp479
g2
I50
sg3
I50
sg4
I10
sg5
I10
sg6
I32
sg7
I59
sg8
g164
sg19
I5
sa(dp480
g2
I50
sg3
I50
sg4
I10
sg5
I10
sg6
I61
sg7
I62
sg8
g160
sg19
I5
sa(dp481
g2
I50
sg3
I50
sg4
I10
sg5
I10
sg6
I43
sg7
I21
sg8
g113
sg19
I5
sa(dp482
g2
I50
sg3
I50
sg4
I10
sg5
I10
sg6
I47
sg7
I27
sg8
g52
sg19
I5
sa(dp483
g2
I50
sg3
I50
sg4
I10
sg5
I10
sg6
I53
sg7
I59
sg8
g39
sg19
I5
sa(dp484
g2
I50
sg3
I50
sg4
I10
sg5
I10
sg6
I62
sg7
I56
sg8
g39
sg19
I5
sa(dp485
g2
I50
sg3
I50
sg4
I10
sg5
I10
sg6
I62
sg7
I39
sg8
g160
sg19
I5
sa(dp486
g2
I50
sg3
I50
sg4
I10
sg5
I10
sg6
I61
sg7
I25
sg8
g84
sg19
I5
sa(dp487
g2
I50
sg3
I50
sg4
I10
sg5
I10
sg6
I29
sg7
I23
sg8
g218
sg19
I5
sa(dp488
g2
I50
sg3
I50
sg4
I10
sg5
I10
sg6
I41
sg7
I40
sg8
g132
sg19
I5
sa(dp489
g2
I50
sg3
I50
sg4
I10
sg5
I10
sg6
I62
sg7
I15
sg8
g102
sg19
I5
sa(dp490
g2
I50
sg3
I50
sg4
I10
sg5
I10
sg6
I47
sg7
I19
sg8
g27
sg19
I5
sa(dp491
g2
I50
sg3
I50
sg4
I10
sg5
I10
sg6
I44
sg7
I19
sg8
g132
sg19
I5
sa(dp492
g2
I50
sg3
I50
sg4
I10
sg5
I10
sg6
I58
sg7
I53
sg8
g18
sg19
I5
sa(dp493
g2
I50
sg3
I50
sg4
I10
sg5
I10
sg6
I27
sg7
I20
sg8
g56
sg19
I5
sa(dp494
g2
I50
sg3
I50
sg4
I10
sg5
I10
sg6
I21
sg7
I28
sg8
g118
sg19
I5
sa(dp495
g2
I50
sg3
I50
sg4
I10
sg5
I10
sg6
I15
sg7
I33
sg8
g168
sg19
I5
sa(dp496
g2
I50
sg3
I50
sg4
I10
sg5
I10
sg6
I37
sg7
I47
sg8
g27
sg19
I5
sa(dp497
g2
I50
sg3
I50
sg4
I10
sg5
I10
sg6
I47
sg7
I22
sg8
g113
sg19
I5
sa(dp498
g2
I50
sg3
I50
sg4
I10
sg5
I10
sg6
I18
sg7
I52
sg8
g208
sg19
I5
sa(dp499
g2
I50
sg3
I50
sg4
I10
sg5
I10
sg6
I60
sg7
I63
sg8
g224
sg19
I5
sa(dp500
g2
I50
sg3
I50
sg4
I10
sg5
I10
sg6
I40
sg7
I20
sg8
g318
sg19
I5
sa(dp501
g2
I50
sg3
I50
sg4
I10
sg5
I10
sg6
I42
sg7
I16
sg8
g164
sg19
I5
sa(dp502
g2
I50
sg3
I50
sg4
I10
sg5
I10
sg6
I34
sg7
I29
sg8
g136
sg19
I5
sa(dp503
g2
I50
sg3
I50
sg4
I10
sg5
I10
sg6
I53
sg7
I40
sg8
g56
sg19
I5
sa(dp504
g2
I50
sg3
I50
sg4
I10
sg5
I10
sg6
I54
sg7
I62
sg8
g39
sg19
I5
sa(dp505
g2
I50
sg3
I50
sg4
I10
sg5
I10
sg6
I24
sg7
I28
sg8
g102
sg19
I5
sa(dp506
g2
I50
sg3
I50
sg4
I10
sg5
I10
sg6
I28
sg7
I61
sg8
g208
sg19
I5
sa(dp507
g2
I50
sg3
I50
sg4
I10
sg5
I10
sg6
I50
sg7
I20
sg8
g224
sg19
I5
sa(dp508
g2
I50
sg3
I50
sg4
I10
sg5
I10
sg6
I62
sg7
I15
sg8
g168
sg19
I5
sa(dp509
g2
I50
sg3
I50
sg4
I10
sg5
I10
sg6
I54
sg7
I54
sg8
g31
sg19
I5
sa(dp510
g2
I50
sg3
I50
sg4
I10
sg5
I10
sg6
I61
sg7
I15
sg8
g18
sg19
I5
sa(dp511
g2
I50
sg3
I50
sg4
I10
sg5
I10
sg6
I26
sg7
I26
sg8
g52
sg19
I5
sa(dp512
g2
I50
sg3
I50
sg4
I10
sg5
I10
sg6
I53
sg7
I55
sg8
g56
sg19
I5
sa(dp513
g2
I50
sg3
I50
sg4
I10
sg5
I10
sg6
I18
sg7
I35
sg8
g218
sg19
I5
sa(dp514
g2
I50
sg3
I50
sg4
I10
sg5
I10
sg6
I34
sg7
I26
sg8
g132
sg19
I5
sa(dp515
g2
I50
sg3
I50
sg4
I10
sg5
I10
sg6
I39
sg7
I56
sg8
g72
sg19
I5
sa(dp516
g2
I50
sg3
I50
sg4
I10
sg5
I10
sg6
I27
sg7
I36
sg8
g118
sg19
I5
sa(dp517
g2
I50
sg3
I50
sg4
I10
sg5
I10
sg6
I24
sg7
I41
sg8
g126
sg19
I5
sa(dp518
g2
I50
sg3
I50
sg4
I10
sg5
I10
sg6
I18
sg7
I63
sg8
g64
sg19
I5
sa(dp519
g2
I50
sg3
I50
sg4
I10
sg5
I10
sg6
I57
sg7
I26
sg8
g102
sg19
I5
sa(dp520
g2
I50
sg3
I50
sg4
I10
sg5
I10
sg6
I27
sg7
I42
sg8
g56
sg19
I5
sa(dp521
g2
I50
sg3
I50
sg4
I10
sg5
I10
sg6
I47
sg7
I63
sg8
g27
sg19
I5
sa(dp522
g2
I50
sg3
I50
sg4
I10
sg5
I10
sg6
I47
sg7
I60
sg8
g118
sg19
I5
sa(dp523
g2
I50
sg3
I50
sg4
I10
sg5
I10
sg6
I62
sg7
I62
sg8
g98
sg19
I5
sa(dp524
g2
I50
sg3
I50
sg4
I10
sg5
I10
sg6
I44
sg7
I27
sg8
g118
sg19
I5
sa(dp525
g2
I50
sg3
I50
sg4
I10
sg5
I10
sg6
I32
sg7
I43
sg8
g88
sg19
I5
sa(dp526
g2
I50
sg3
I50
sg4
I10
sg5
I10
sg6
I58
sg7
I22
sg8
g155
sg19
I5
sa(dp527
g2
I50
sg3
I50
sg4
I10
sg5
I10
sg6
I20
sg7
I45
sg8
g43
sg19
I5
sa(dp528
g2
I50
sg3
I50
sg4
I10
sg5
I10
sg6
I26
sg7
I32
sg8
g76
sg19
I5
sa(dp529
g2
I50
sg3
I50
sg4
I10
sg5
I10
sg6
I61
sg7
I42
sg8
g52
sg19
I5
sa(dp530
g2
I50
sg3
I50
sg4
I10
sg5
I10
sg6
I37
sg7
I50
sg8
g43
sg19
I5
sa(dp531
g2
I50
sg3
I50
sg4
I10
sg5
I10
sg6
I38
sg7
I42
sg8
g35
sg19
I5
sa(dp532
g2
I50
sg3
I50
sg4
I10
sg5
I10
sg6
I48
sg7
I64
sg8
g56
sg19
I5
sa(dp533
g2
I50
sg3
I50
sg4
I10
sg5
I10
sg6
I52
sg7
I61
sg8
g108
sg19
I5
sa(dp534
g2
I50
sg3
I50
sg4
I10
sg5
I10
sg6
I20
sg7
I63
sg8
g94
sg19
I5
sa(dp535
g2
I50
sg3
I50
sg4
I10
sg5
I10
sg6
I50
sg7
I38
sg8
g64
sg19
I5
sa(dp536
g2
I50
sg3
I50
sg4
I10
sg5
I10
sg6
I16
sg7
I32
sg8
g248
sg19
I5
sa(dp537
g2
I50
sg3
I50
sg4
I10
sg5
I10
sg6
I44
sg7
I38
sg8
g132
sg19
I5
sa(dp538
g2
I50
sg3
I50
sg4
I10
sg5
I10
sg6
I19
sg7
I48
sg8
g248
sg19
I5
sa(dp539
g2
I50
sg3
I50
sg4
I10
sg5
I10
sg6
I54
sg7
I35
sg8
g56
sg19
I5
sa(dp540
g2
I50
sg3
I50
sg4
I10
sg5
I10
sg6
I21
sg7
I18
sg8
g248
sg19
I5
sa(dp541
g2
I50
sg3
I50
sg4
I10
sg5
I10
sg6
I46
sg7
I57
sg8
g88
sg19
I5
sa(dp542
g2
I50
sg3
I50
sg4
I10
sg5
I10
sg6
I48
sg7
I35
sg8
g88
sg19
I5
sa(dp543
g2
I50
sg3
I50
sg4
I10
sg5
I10
sg6
I29
sg7
I24
sg8
g64
sg19
I5
sa(dp544
g2
I50
sg3
I50
sg4
I10
sg5
I10
sg6
I31
sg7
I48
sg8
g88
sg19
I5
sa(dp545
g2
I50
sg3
I50
sg4
I10
sg5
I10
sg6
I55
sg7
I18
sg8
g27
sg19
I5
sa(dp546
g2
I50
sg3
I50
sg4
I10
sg5
I10
sg6
I24
sg7
I64
sg8
g35
sg19
I5
sa(dp547
g2
I50
sg3
I50
sg4
I10
sg5
I10
sg6
I57
sg7
I45
sg8
g168
sg19
I5
sa(dp548
g2
I50
sg3
I50
sg4
I10
sg5
I10
sg6
I52
sg7
I32
sg8
g179
sg19
I5
sa(dp549
g2
I50
sg3
I50
sg4
I10
sg5
I10
sg6
I51
sg7
I36
sg8
g88
sg19
I5
sa(dp550
g2
I50
sg3
I50
sg4
I10
sg5
I10
sg6
I38
sg7
I29
sg8
g60
sg19
I5
sa(dp551
g2
I50
sg3
I50
sg4
I10
sg5
I10
sg6
I62
sg7
I42
sg8
g108
sg19
I5
sa(dp552
g2
I50
sg3
I50
sg4
I10
sg5
I10
sg6
I36
sg7
I58
sg8
g224
sg19
I5
sa(dp553
g2
I50
sg3
I50
sg4
I10
sg5
I10
sg6
I42
sg7
I52
sg8
g160
sg19
I5
sa(dp554
g2
I50
sg3
I50
sg4
I10
sg5
I10
sg6
I35
sg7
I31
sg8
g48
sg19
I5
sa(dp555
g2
I50
sg3
I50
sg4
I10
sg5
I10
sg6
I39
sg7
I49
sg8
g318
sg19
I5
sa(dp556
g2
I50
sg3
I50
sg4
I10
sg5
I10
sg6
I38
sg7
I46
sg8
g132
sg19
I5
sa(dp557
g2
I50
sg3
I50
sg4
I10
sg5
I10
sg6
I19
sg7
I48
sg8
g72
sg19
I5
sa(dp558
g2
I50
sg3
I50
sg4
I10
sg5
I10
sg6
I46
sg7
I35
sg8
g56
sg19
I5
sa(dp559
g2
I50
sg3
I50
sg4
I10
sg5
I10
sg6
I29
sg7
I30
sg8
g48
sg19
I5
sa(dp560
g2
I50
sg3
I50
sg4
I10
sg5
I10
sg6
I53
sg7
I33
sg8
g94
sg19
I5
sa(dp561
g2
I50
sg3
I50
sg4
I10
sg5
I10
sg6
I60
sg7
I55
sg8
g224
sg19
I5
sa(dp562
g2
I50
sg3
I50
sg4
I10
sg5
I10
sg6
I43
sg7
I49
sg8
g113
sg19
I5
sa(dp563
g2
I50
sg3
I50
sg4
I10
sg5
I10
sg6
I19
sg7
I28
sg8
g18
sg19
I5
sa(dp564
g2
I50
sg3
I50
sg4
I10
sg5
I10
sg6
I29
sg7
I64
sg8
g126
sg19
I5
sa(dp565
g2
I50
sg3
I50
sg4
I10
sg5
I10
sg6
I46
sg7
I27
sg8
g64
sg19
I5
sa(dp566
g2
I50
sg3
I50
sg4
I10
sg5
I10
sg6
I58
sg7
I21
sg8
g98
sg19
I5
sa(dp567
g2
I50
sg3
I50
sg4
I10
sg5
I10
sg6
I58
sg7
I61
sg8
g52
sg19
I5
sa(dp568
g2
I50
sg3
I50
sg4
I10
sg5
I10
sg6
I36
sg7
I25
sg8
g52
sg19
I5
sa(dp569
g2
I50
sg3
I50
sg4
I10
sg5
I10
sg6
I21
sg7
I15
sg8
g48
sg19
I5
sa(dp570
g2
I50
sg3
I50
sg4
I10
sg5
I10
sg6
I64
sg7
I26
sg8
g136
sg19
I5
sa(dp571
g2
I50
sg3
I50
sg4
I10
sg5
I10
sg6
I36
sg7
I37
sg8
g179
sg19
I5
sa(dp572
g2
I50
sg3
I50
sg4
I10
sg5
I10
sg6
I21
sg7
I22
sg8
g136
sg19
I5
sa(dp573
g2
I50
sg3
I50
sg4
I10
sg5
I10
sg6
I32
sg7
I30
sg8
g203
sg19
I5
sa(dp574
g2
I50
sg3
I50
sg4
I10
sg5
I10
sg6
I39
sg7
I59
sg8
g118
sg19
I5
sa(dp575
g2
I50
sg3
I50
sg4
I10
sg5
I10
sg6
I46
sg7
I16
sg8
g136
sg19
I5
sa(dp576
g2
I50
sg3
I50
sg4
I10
sg5
I10
sg6
I24
sg7
I56
sg8
g18
sg19
I5
sa(dp577
g2
I50
sg3
I50
sg4
I10
sg5
I10
sg6
I40
sg7
I46
sg8
g60
sg19
I5
sa(dp578
g2
I50
sg3
I50
sg4
I10
sg5
I10
sg6
I33
sg7
I25
sg8
g60
sg19
I5
sa(dp579
g2
I50
sg3
I50
sg4
I10
sg5
I10
sg6
I44
sg7
I18
sg8
g76
sg19
I5
sa(dp580
g2
I50
sg3
I50
sg4
I10
sg5
I10
sg6
I31
sg7
I55
sg8
g31
sg19
I5
sa(dp581
g2
I50
sg3
I50
sg4
I10
sg5
I10
sg6
I17
sg7
I43
sg8
g218
sg19
I5
sa(dp582
g2
I50
sg3
I50
sg4
I10
sg5
I10
sg6
I59
sg7
I16
sg8
g248
sg19
I5
sa(dp583
g2
I50
sg3
I50
sg4
I10
sg5
I10
sg6
I16
sg7
I53
sg8
g318
sg19
I5
sa(dp584
g2
I50
sg3
I50
sg4
I10
sg5
I10
sg6
I60
sg7
I44
sg8
g60
sg19
I5
sa(dp585
g2
I50
sg3
I50
sg4
I10
sg5
I10
sg6
I42
sg7
I31
sg8
g43
sg19
I5
sa(dp586
g2
I50
sg3
I50
sg4
I10
sg5
I10
sg6
I49
sg7
I45
sg8
g84
sg19
I5
sa(dp587
g2
I50
sg3
I50
sg4
I10
sg5
I10
sg6
I44
sg7
I55
sg8
g56
sg19
I5
sa(dp588
g2
I50
sg3
I50
sg4
I10
sg5
I10
sg6
I18
sg7
I19
sg8
g160
sg19
I5
sa(dp589
g2
I50
sg3
I50
sg4
I10
sg5
I10
sg6
I15
sg7
I53
sg8
g18
sg19
I5
sa(dp590
g2
I50
sg3
I50
sg4
I10
sg5
I10
sg6
I50
sg7
I64
sg8
g43
sg19
I5
sa(dp591
g2
I50
sg3
I50
sg4
I10
sg5
I10
sg6
I46
sg7
I58
sg8
g160
sg19
I5
sa(dp592
g2
I50
sg3
I50
sg4
I10
sg5
I10
sg6
I38
sg7
I20
sg8
g160
sg19
I5
sa(dp593
g2
I50
sg3
I50
sg4
I10
sg5
I10
sg6
I18
sg7
I24
sg8
g224
sg19
I5
sa(dp594
g2
I50
sg3
I50
sg4
I10
sg5
I10
sg6
I58
sg7
I26
sg8
g35
sg19
I5
sa(dp595
g2
I50
sg3
I50
sg4
I10
sg5
I10
sg6
I58
sg7
I53
sg8
g64
sg19
I5
sa(dp596
g2
I50
sg3
I50
sg4
I10
sg5
I10
sg6
I50
sg7
I51
sg8
g64
sg19
I5
sa(dp597
g2
I50
sg3
I50
sg4
I10
sg5
I10
sg6
I37
sg7
I61
sg8
g23
sg19
I5
sa(dp598
g2
I50
sg3
I50
sg4
I10
sg5
I10
sg6
I58
sg7
I34
sg8
g164
sg19
I5
sa(dp599
g2
I50
sg3
I50
sg4
I10
sg5
I10
sg6
I43
sg7
I15
sg8
g218
sg19
I5
sa(dp600
g2
I50
sg3
I50
sg4
I10
sg5
I10
sg6
I39
sg7
I47
sg8
g160
sg19
I5
sa(dp601
g2
I50
sg3
I50
sg4
I10
sg5
I10
sg6
I46
sg7
I17
sg8
g145
sg19
I5
sa(dp602
g2
I50
sg3
I50
sg4
I10
sg5
I10
sg6
I48
sg7
I22
sg8
g168
sg19
I5
sa(dp603
g2
I50
sg3
I50
sg4
I10
sg5
I10
sg6
I18
sg7
I35
sg8
g31
sg19
I5
sa(dp604
g2
I50
sg3
I50
sg4
I10
sg5
I10
sg6
I50
sg7
I17
sg8
g126
sg19
I5
sa(dp605
g2
I50
sg3
I50
sg4
I10
sg5
I10
sg6
I53
sg7
I54
sg8
g76
sg19
I5
sa(dp606
g2
I50
sg3
I50
sg4
I10
sg5
I10
sg6
I63
sg7
I20
sg8
g136
sg19
I5
sa(dp607
g2
I50
sg3
I50
sg4
I10
sg5
I10
sg6
I24
sg7
I22
sg8
g132
sg19
I5
sa(dp608
g2
I50
sg3
I50
sg4
I10
sg5
I10
sg6
I29
sg7
I35
sg8
g203
sg19
I5
sa(dp609
g2
I50
sg3
I50
sg4
I10
sg5
I10
sg6
I54
sg7
I15
sg8
g113
sg19
I5
sa(dp610
g2
I50
sg3
I50
sg4
I10
sg5
I10
sg6
I33
sg7
I60
sg8
g76
sg19
I5
sa(dp611
g2
I50
sg3
I50
sg4
I10
sg5
I10
sg6
I15
sg7
I49
sg8
g179
sg19
I5
sa(dp612
g2
I50
sg3
I50
sg4
I10
sg5
I10
sg6
I29
sg7
I54
sg8
g160
sg19
I5
sa(dp613
g2
I50
sg3
I50
sg4
I10
sg5
I10
sg6
I33
sg7
I29
sg8
g60
sg19
I5
sa(dp614
g2
I50
sg3
I50
sg4
I10
sg5
I10
sg6
I34
sg7
I38
sg8
g68
sg19
I5
sa(dp615
g2
I50
sg3
I50
sg4
I10
sg5
I10
sg6
I18
sg7
I28
sg8
g208
sg19
I5
sa(dp616
g2
I50
sg3
I50
sg4
I10
sg5
I10
sg6
I63
sg7
I18
sg8
g48
sg19
I5
sa(dp617
g2
I50
sg3
I50
sg4
I10
sg5
I10
sg6
I59
sg7
I63
sg8
g76
sg19
I5
sa(dp618
g2
I50
sg3
I50
sg4
I10
sg5
I10
sg6
I40
sg7
I52
sg8
g31
sg19
I5
sa(dp619
g2
I50
sg3
I50
sg4
I10
sg5
I10
sg6
I57
sg7
I39
sg8
g94
sg19
I5
sa(dp620
g2
I50
sg3
I50
sg4
I10
sg5
I10
sg6
I53
sg7
I18
sg8
g160
sg19
I5
sa(dp621
g2
I50
sg3
I50
sg4
I10
sg5
I10
sg6
I31
sg7
I28
sg8
g318
sg19
I5
sa(dp622
g2
I50
sg3
I50
sg4
I10
sg5
I10
sg6
I16
sg7
I20
sg8
g56
sg19
I5
sa(dp623
g2
I50
sg3
I50
sg4
I10
sg5
I10
sg6
I38
sg7
I22
sg8
g27
sg19
I5
sa(dp624
g2
I50
sg3
I50
sg4
I10
sg5
I10
sg6
I57
sg7
I52
sg8
g23
sg19
I5
sa(dp625
g2
I50
sg3
I50
sg4
I10
sg5
I10
sg6
I55
sg7
I54
sg8
g39
sg19
I5
sa(dp626
g2
I50
sg3
I50
sg4
I10
sg5
I10
sg6
I55
sg7
I51
sg8
g23
sg19
I5
sa(dp627
g2
I50
sg3
I50
sg4
I10
sg5
I10
sg6
I63
sg7
I53
sg8
g179
sg19
I5
sa(dp628
g2
I50
sg3
I50
sg4
I10
sg5
I10
sg6
I45
sg7
I53
sg8
g52
sg19
I5
sa(dp629
g2
I50
sg3
I50
sg4
I10
sg5
I10
sg6
I45
sg7
I30
sg8
g179
sg19
I5
sa(dp630
g2
I50
sg3
I50
sg4
I10
sg5
I10
sg6
I64
sg7
I49
sg8
g35
sg19
I5
sa(dp631
g2
I50
sg3
I50
sg4
I10
sg5
I10
sg6
I31
sg7
I49
sg8
g72
sg19
I5
sa(dp632
g2
I50
sg3
I50
sg4
I10
sg5
I10
sg6
I16
sg7
I20
sg8
g35
sg19
I5
sa(dp633
g2
I50
sg3
I50
sg4
I10
sg5
I10
sg6
I40
sg7
I28
sg8
g203
sg19
I5
sa(dp634
g2
I50
sg3
I50
sg4
I10
sg5
I10
sg6
I39
sg7
I40
sg8
g72
sg19
I5
sa(dp635
g2
I50
sg3
I50
sg4
I10
sg5
I10
sg6
I40
sg7
I54
sg8
g27
sg19
I5
sa(dp636
g2
I50
sg3
I50
sg4
I10
sg5
I10
sg6
I48
sg7
I61
sg8
g60
sg19
I5
sa(dp637
g2
I50
sg3
I50
sg4
I10
sg5
I10
sg6
I61
sg7
I52
sg8
g56
sg19
I5
sa(dp638
g2
I50
sg3
I50
sg4
I10
sg5
I10
sg6
I41
sg7
I29
sg8
g113
sg19
I5
sa(dp639
g2
I50
sg3
I50
sg4
I10
sg5
I10
sg6
I19
sg7
I53
sg8
g94
sg19
I5
sa(dp640
g2
I50
sg3
I50
sg4
I10
sg5
I10
sg6
I22
sg7
I36
sg8
g203
sg19
I5
sa(dp641
g2
I50
sg3
I50
sg4
I10
sg5
I10
sg6
I17
sg7
I31
sg8
g31
sg19
I5
sa(dp642
g2
I50
sg3
I50
sg4
I10
sg5
I10
sg6
I37
sg7
I20
sg8
g208
sg19
I5
sa(dp643
g2
I50
sg3
I50
sg4
I10
sg5
I10
sg6
I44
sg7
I27
sg8
g136
sg19
I5
sa(dp644
g2
I50
sg3
I50
sg4
I10
sg5
I10
sg6
I48
sg7
I30
sg8
g31
sg19
I5
sa(dp645
g2
I50
sg3
I50
sg4
I10
sg5
I10
sg6
I52
sg7
I56
sg8
g155
sg19
I5
sa(dp646
g2
I50
sg3
I50
sg4
I10
sg5
I10
sg6
I15
sg7
I36
sg8
g113
sg19
I5
sa(dp647
g2
I50
sg3
I50
sg4
I10
sg5
I10
sg6
I60
sg7
I41
sg8
g179
sg19
I5
sa(dp648
g2
I50
sg3
I50
sg4
I10
sg5
I10
sg6
I50
sg7
I36
sg8
g31
sg19
I5
sa(dp649
g2
I50
sg3
I50
sg4
I10
sg5
I10
sg6
I17
sg7
I46
sg8
g64
sg19
I5
sa(dp650
g2
I50
sg3
I50
sg4
I10
sg5
I10
sg6
I60
sg7
I30
sg8
g52
sg19
I5
sa(dp651
g2
I50
sg3
I50
sg4
I10
sg5
I10
sg6
I26
sg7
I49
sg8
g203
sg19
I5
sa(dp652
g2
I50
sg3
I50
sg4
I10
sg5
I10
sg6
I43
sg7
I54
sg8
g94
sg19
I5
sa(dp653
g2
I50
sg3
I50
sg4
I10
sg5
I10
sg6
I16
sg7
I22
sg8
g94
sg19
I5
sa(dp654
g2
I50
sg3
I50
sg4
I10
sg5
I10
sg6
I36
sg7
I25
sg8
g48
sg19
I5
sa(dp655
g2
I50
sg3
I50
sg4
I10
sg5
I10
sg6
I16
sg7
I44
sg8
g84
sg19
I5
sa(dp656
g2
I50
sg3
I50
sg4
I10
sg5
I10
sg6
I41
sg7
I47
sg8
g318
sg19
I5
sa(dp657
g2
I50
sg3
I50
sg4
I10
sg5
I10
sg6
I42
sg7
I46
sg8
g132
sg19
I5
sa(dp658
g2
I50
sg3
I50
sg4
I10
sg5
I10
sg6
I16
sg7
I50
sg8
g23
sg19
I5
sa(dp659
g2
I50
sg3
I50
sg4
I10
sg5
I10
sg6
I23
sg7
I49
sg8
g318
sg19
I5
sa(dp660
g2
I50
sg3
I50
sg4
I10
sg5
I10
sg6
I29
sg7
I40
sg8
g126
sg19
I5
sa(dp661
g2
I50
sg3
I50
sg4
I10
sg5
I10
sg6
I54
sg7
I50
sg8
g94
sg19
I5
sa(dp662
g2
I50
sg3
I50
sg4
I10
sg5
I10
sg6
I51
sg7
I51
sg8
g203
sg19
I5
sa(dp663
g2
I50
sg3
I50
sg4
I10
sg5
I10
sg6
I33
sg7
I32
sg8
g102
sg19
I5
sa(dp664
g2
I50
sg3
I50
sg4
I10
sg5
I10
sg6
I30
sg7
I25
sg8
g60
sg19
I5
sa(dp665
g2
I50
sg3
I50
sg4
I10
sg5
I10
sg6
I60
sg7
I16
sg8
g126
sg19
I5
sa(dp666
g2
I50
sg3
I50
sg4
I10
sg5
I10
sg6
I45
sg7
I26
sg8
g27
sg19
I5
sa(dp667
g2
I50
sg3
I50
sg4
I10
sg5
I10
sg6
I59
sg7
I38
sg8
g179
sg19
I5
sa(dp668
g2
I50
sg3
I50
sg4
I10
sg5
I10
sg6
I47
sg7
I25
sg8
g27
sg19
I5
sa(dp669
g2
I50
sg3
I50
sg4
I10
sg5
I10
sg6
I20
sg7
I22
sg8
g318
sg19
I5
sa(dp670
g2
I50
sg3
I50
sg4
I10
sg5
I10
sg6
I55
sg7
I44
sg8
g27
sg19
I5
sa(dp671
g2
I50
sg3
I50
sg4
I10
sg5
I10
sg6
I53
sg7
I42
sg8
g84
sg19
I5
sa(dp672
g2
I50
sg3
I50
sg4
I10
sg5
I10
sg6
I51
sg7
I35
sg8
g102
sg19
I5
sa(dp673
g2
I50
sg3
I50
sg4
I10
sg5
I10
sg6
I63
sg7
I23
sg8
g118
sg19
I5
sa(dp674
g2
I50
sg3
I50
sg4
I10
sg5
I10
sg6
I36
sg7
I18
sg8
g64
sg19
I5
sa(dp675
g2
I50
sg3
I50
sg4
I10
sg5
I10
sg6
I20
sg7
I35
sg8
g224
sg19
I5
sa(dp676
g2
I50
sg3
I50
sg4
I10
sg5
I10
sg6
I43
sg7
I63
sg8
g160
sg19
I5
sa(dp677
g2
I50
sg3
I50
sg4
I10
sg5
I10
sg6
I51
sg7
I16
sg8
g136
sg19
I5
sa(dp678
g2
I50
sg3
I50
sg4
I10
sg5
I10
sg6
I25
sg7
I27
sg8
g132
sg19
I5
sa(dp679
g2
I50
sg3
I50
sg4
I10
sg5
I10
sg6
I16
sg7
I35
sg8
g52
sg19
I5
sa(dp680
g2
I50
sg3
I50
sg4
I10
sg5
I10
sg6
I20
sg7
I32
sg8
g72
sg19
I5
sa(dp681
g2
I50
sg3
I50
sg4
I10
sg5
I10
sg6
I52
sg7
I56
sg8
g88
sg19
I5
sa(dp682
g2
I50
sg3
I50
sg4
I10
sg5
I10
sg6
I48
sg7
I24
sg8
g35
sg19
I5
sa(dp683
g2
I50
sg3
I50
sg4
I10
sg5
I10
sg6
I15
sg7
I21
sg8
g248
sg19
I5
sa(dp684
g2
I50
sg3
I50
sg4
I10
sg5
I10
sg6
I56
sg7
I28
sg8
g108
sg19
I5
sa(dp685
g2
I50
sg3
I50
sg4
I10
sg5
I10
sg6
I48
sg7
I54
sg8
g60
sg19
I5
sa(dp686
g2
I50
sg3
I50
sg4
I10
sg5
I10
sg6
I47
sg7
I40
sg8
g102
sg19
I5
sa(dp687
g2
I50
sg3
I50
sg4
I10
sg5
I10
sg6
I18
sg7
I53
sg8
g39
sg19
I5
sa(dp688
g2
I50
sg3
I50
sg4
I10
sg5
I10
sg6
I63
sg7
I35
sg8
g208
sg19
I5
sa(dp689
g2
I50
sg3
I50
sg4
I10
sg5
I10
sg6
I23
sg7
I41
sg8
g155
sg19
I5
sa(dp690
g2
I50
sg3
I50
sg4
I10
sg5
I10
sg6
I54
sg7
I17
sg8
g88
sg19
I5
sa(dp691
g2
I50
sg3
I50
sg4
I10
sg5
I10
sg6
I35
sg7
I46
sg8
g168
sg19
I5
sa(dp692
g2
I50
sg3
I50
sg4
I10
sg5
I10
sg6
I29
sg7
I62
sg8
g72
sg19
I5
sa(dp693
g2
I50
sg3
I50
sg4
I10
sg5
I10
sg6
I50
sg7
I59
sg8
g76
sg19
I5
sa(dp694
g2
I50
sg3
I50
sg4
I10
sg5
I10
sg6
I60
sg7
I59
sg8
g56
sg19
I5
sa(dp695
g2
I50
sg3
I50
sg4
I10
sg5
I10
sg6
I64
sg7
I43
sg8
g31
sg19
I5
sa(dp696
g2
I50
sg3
I50
sg4
I10
sg5
I10
sg6
I54
sg7
I25
sg8
g179
sg19
I5
sa(dp697
g2
I50
sg3
I50
sg4
I10
sg5
I10
sg6
I33
sg7
I19
sg8
g208
sg19
I5
sa(dp698
g2
I50
sg3
I50
sg4
I10
sg5
I10
sg6
I18
sg7
I39
sg8
g102
sg19
I5
sa(dp699
g2
I50
sg3
I50
sg4
I10
sg5
I10
sg6
I15
sg7
I43
sg8
g56
sg19
I5
sa(dp700
g2
I50
sg3
I50
sg4
I10
sg5
I10
sg6
I26
sg7
I36
sg8
g72
sg19
I5
sa(dp701
g2
I50
sg3
I50
sg4
I10
sg5
I10
sg6
I33
sg7
I50
sg8
g84
sg19
I5
sa(dp702
g2
I50
sg3
I50
sg4
I10
sg5
I10
sg6
I34
sg7
I41
sg8
g224
sg19
I5
sa(dp703
g2
I50
sg3
I50
sg4
I10
sg5
I10
sg6
I35
sg7
I48
sg8
g72
sg19
I5
sa(dp704
g2
I50
sg3
I50
sg4
I10
sg5
I10
sg6
I43
sg7
I29
sg8
g72
sg19
I5
sa(dp705
g2
I50
sg3
I50
sg4
I10
sg5
I10
sg6
I28
sg7
I15
sg8
g56
sg19
I5
sa(dp706
g2
I50
sg3
I50
sg4
I10
sg5
I10
sg6
I64
sg7
I46
sg8
g76
sg19
I5
sa(dp707
g2
I50
sg3
I50
sg4
I10
sg5
I10
sg6
I54
sg7
I15
sg8
g126
sg19
I5
sa(dp708
g2
I50
sg3
I50
sg4
I10
sg5
I10
sg6
I34
sg7
I26
sg8
g88
sg19
I5
sa(dp709
g2
I50
sg3
I50
sg4
I10
sg5
I10
sg6
I25
sg7
I41
sg8
g35
sg19
I5
sa(dp710
g2
I50
sg3
I50
sg4
I10
sg5
I10
sg6
I54
sg7
I56
sg8
g208
sg19
I5
sa(dp711
g2
I50
sg3
I50
sg4
I10
sg5
I10
sg6
I40
sg7
I43
sg8
g160
sg19
I5
sa(dp712
g2
I50
sg3
I50
sg4
I10
sg5
I10
sg6
I37
sg7
I43
sg8
g164
sg19
I5
sa(dp713
g2
I50
sg3
I50
sg4
I10
sg5
I10
sg6
I26
sg7
I15
sg8
g224
sg19
I5
sa(dp714
g2
I50
sg3
I50
sg4
I10
sg5
I10
sg6
I21
sg7
I62
sg8
g48
sg19
I5
sa(dp715
g2
I50
sg3
I50
sg4
I10
sg5
I10
sg6
I59
sg7
I64
sg8
g56
sg19
I5
sa(dp716
g2
I50
sg3
I50
sg4
I10
sg5
I10
sg6
I51
sg7
I49
sg8
g94
sg19
I5
sa(dp717
g2
I50
sg3
I50
sg4
I10
sg5
I10
sg6
I58
sg7
I61
sg8
g76
sg19
I5
sa(dp718
g2
I50
sg3
I50
sg4
I10
sg5
I10
sg6
I37
sg7
I19
sg8
g179
sg19
I5
sa(dp719
g2
I50
sg3
I50
sg4
I10
sg5
I10
sg6
I61
sg7
I19
sg8
g35
sg19
I5
sa(dp720
g2
I50
sg3
I50
sg4
I10
sg5
I10
sg6
I63
sg7
I36
sg8
g248
sg19
I5
sa(dp721
g2
I50
sg3
I50
sg4
I10
sg5
I10
sg6
I63
sg7
I59
sg8
g113
sg19
I5
sa(dp722
g2
I50
sg3
I50
sg4
I10
sg5
I10
sg6
I33
sg7
I18
sg8
g102
sg19
I5
sa(dp723
g2
I50
sg3
I50
sg4
I10
sg5
I10
sg6
I43
sg7
I41
sg8
g56
sg19
I5
sa(dp724
g2
I50
sg3
I50
sg4
I10
sg5
I10
sg6
I58
sg7
I56
sg8
g98
sg19
I5
sa(dp725
g2
I50
sg3
I50
sg4
I10
sg5
I10
sg6
I23
sg7
I57
sg8
g208
sg19
I5
sa(dp726
g2
I50
sg3
I50
sg4
I10
sg5
I10
sg6
I34
sg7
I48
sg8
g23
sg19
I5
sa(dp727
g2
I50
sg3
I50
sg4
I10
sg5
I10
sg6
I55
sg7
I63
sg8
g72
sg19
I5
sa(dp728
g2
I50
sg3
I50
sg4
I10
sg5
I10
sg6
I45
sg7
I31
sg8
g68
sg19
I5
sa(dp729
g2
I50
sg3
I50
sg4
I10
sg5
I10
sg6
I20
sg7
I47
sg8
g224
sg19
I5
sa(dp730
g2
I50
sg3
I50
sg4
I10
sg5
I10
sg6
I28
sg7
I44
sg8
g132
sg19
I5
sa(dp731
g2
I50
sg3
I50
sg4
I10
sg5
I10
sg6
I37
sg7
I40
sg8
g102
sg19
I5
sa(dp732
g2
I50
sg3
I50
sg4
I10
sg5
I10
sg6
I42
sg7
I20
sg8
g48
sg19
I5
sa(dp733
g2
I50
sg3
I50
sg4
I10
sg5
I10
sg6
I33
sg7
I19
sg8
g113
sg19
I5
sa(dp734
g2
I50
sg3
I50
sg4
I10
sg5
I10
sg6
I55
sg7
I44
sg8
g31
sg19
I5
sa(dp735
g2
I50
sg3
I50
sg4
I10
sg5
I10
sg6
I27
sg7
I36
sg8
g88
sg19
I5
sa(dp736
g2
I50
sg3
I50
sg4
I10
sg5
I10
sg6
I49
sg7
I42
sg8
g84
sg19
I5
sa(dp737
g2
I50
sg3
I50
sg4
I10
sg5
I10
sg6
I62
sg7
I38
sg8
g56
sg19
I5
sa(dp738
g2
I50
sg3
I50
sg4
I10
sg5
I10
sg6
I57
sg7
I34
sg8
g88
sg19
I5
sa(dp739
g2
I50
sg3
I50
sg4
I10
sg5
I10
sg6
I62
sg7
I59
sg8
g18
sg19
I5
sa(dp740
g2
I50
sg3
I50
sg4
I10
sg5
I10
sg6
I36
sg7
I26
sg8
g203
sg19
I5
sa(dp741
g2
I50
sg3
I50
sg4
I10
sg5
I10
sg6
I37
sg7
I37
sg8
g18
sg19
I5
sa(dp742
g2
I50
sg3
I50
sg4
I10
sg5
I10
sg6
I59
sg7
I26
sg8
g48
sg19
I5
sa(dp743
g2
I50
sg3
I50
sg4
I10
sg5
I10
sg6
I54
sg7
I54
sg8
g160
sg19
I5
sa(dp744
g2
I50
sg3
I50
sg4
I10
sg5
I10
sg6
I18
sg7
I36
sg8
g113
sg19
I5
sa(dp745
g2
I50
sg3
I50
sg4
I10
sg5
I10
sg6
I59
sg7
I61
sg8
g56
sg19
I5
sa(dp746
g2
I50
sg3
I50
sg4
I10
sg5
I10
sg6
I49
sg7
I57
sg8
g126
sg19
I5
sa(dp747
g2
I50
sg3
I50
sg4
I10
sg5
I10
sg6
I37
sg7
I44
sg8
g23
sg19
I5
sa(dp748
g2
I50
sg3
I50
sg4
I10
sg5
I10
sg6
I17
sg7
I26
sg8
g64
sg19
I5
sa(dp749
g2
I50
sg3
I50
sg4
I10
sg5
I10
sg6
I19
sg7
I60
sg8
g39
sg19
I5
sa(dp750
g2
I50
sg3
I50
sg4
I10
sg5
I10
sg6
I44
sg7
I49
sg8
g27
sg19
I5
sa(dp751
g2
I50
sg3
I50
sg4
I10
sg5
I10
sg6
I52
sg7
I45
sg8
g56
sg19
I5
sa(dp752
g2
I50
sg3
I50
sg4
I10
sg5
I10
sg6
I19
sg7
I40
sg8
g52
sg19
I5
sa(dp753
g2
I50
sg3
I50
sg4
I10
sg5
I10
sg6
I46
sg7
I24
sg8
g145
sg19
I5
sa(dp754
g2
I50
sg3
I50
sg4
I10
sg5
I10
sg6
I59
sg7
I58
sg8
g248
sg19
I5
sa(dp755
g2
I50
sg3
I50
sg4
I10
sg5
I10
sg6
I44
sg7
I26
sg8
g43
sg19
I5
sa(dp756
g2
I50
sg3
I50
sg4
I10
sg5
I10
sg6
I24
sg7
I61
sg8
g208
sg19
I5
sa(dp757
g2
I50
sg3
I50
sg4
I10
sg5
I10
sg6
I15
sg7
I19
sg8
g118
sg19
I5
sa(dp758
g2
I50
sg3
I50
sg4
I10
sg5
I10
sg6
I20
sg7
I47
sg8
g35
sg19
I5
sa(dp759
g2
I50
sg3
I50
sg4
I10
sg5
I10
sg6
I47
sg7
I52
sg8
g126
sg19
I5
sa(dp760
g2
I50
sg3
I50
sg4
I10
sg5
I10
sg6
I29
sg7
I15
sg8
g155
sg19
I5
sa(dp761
g2
I50
sg3
I50
sg4
I10
sg5
I10
sg6
I64
sg7
I25
sg8
g35
sg19
I5
sa(dp762
g2
I50
sg3
I50
sg4
I10
sg5
I10
sg6
I16
sg7
I27
sg8
g64
sg19
I5
sa(dp763
g2
I50
sg3
I50
sg4
I10
sg5
I10
sg6
I61
sg7
I30
sg8
g168
sg19
I5
sa(dp764
g2
I50
sg3
I50
sg4
I10
sg5
I10
sg6
I42
sg7
I17
sg8
g168
sg19
I5
sa(dp765
g2
I50
sg3
I50
sg4
I10
sg5
I10
sg6
I62
sg7
I36
sg8
g208
sg19
I5
sa(dp766
g2
I50
sg3
I50
sg4
I10
sg5
I10
sg6
I24
sg7
I42
sg8
g18
sg19
I5
sa(dp767
g2
I50
sg3
I50
sg4
I10
sg5
I10
sg6
I56
sg7
I41
sg8
g113
sg19
I5
sa(dp768
g2
I50
sg3
I50
sg4
I10
sg5
I10
sg6
I53
sg7
I27
sg8
g31
sg19
I5
sa(dp769
g2
I50
sg3
I50
sg4
I10
sg5
I10
sg6
I23
sg7
I42
sg8
g60
sg19
I5
sa(dp770
g2
I50
sg3
I50
sg4
I10
sg5
I10
sg6
I15
sg7
I20
sg8
g23
sg19
I5
sa(dp771
g2
I50
sg3
I50
sg4
I10
sg5
I10
sg6
I25
sg7
I26
sg8
g113
sg19
I5
sa(dp772
g2
I50
sg3
I50
sg4
I10
sg5
I10
sg6
I45
sg7
I34
sg8
g318
sg19
I5
sa(dp773
g2
I50
sg3
I50
sg4
I10
sg5
I10
sg6
I23
sg7
I31
sg8
g39
sg19
I5
sa(dp774
g2
I50
sg3
I50
sg4
I10
sg5
I10
sg6
I16
sg7
I30
sg8
g52
sg19
I5
sa(dp775
g2
I50
sg3
I50
sg4
I10
sg5
I10
sg6
I17
sg7
I26
sg8
g98
sg19
I5
sa(dp776
g2
I50
sg3
I50
sg4
I10
sg5
I10
sg6
I26
sg7
I22
sg8
g208
sg19
I5
sa(dp777
g2
I50
sg3
I50
sg4
I10
sg5
I10
sg6
I41
sg7
I38
sg8
g126
sg19
I5
sa(dp778
g2
I50
sg3
I50
sg4
I10
sg5
I10
sg6
I40
sg7
I27
sg8
g43
sg19
I5
sa(dp779
g2
I50
sg3
I50
sg4
I10
sg5
I10
sg6
I22
sg7
I51
sg8
g68
sg19
I5
sa(dp780
g2
I50
sg3
I50
sg4
I10
sg5
I10
sg6
I22
sg7
I15
sg8
g136
sg19
I5
sa(dp781
g2
I50
sg3
I50
sg4
I10
sg5
I10
sg6
I50
sg7
I37
sg8
g155
sg19
I5
sa(dp782
g2
I50
sg3
I50
sg4
I10
sg5
I10
sg6
I59
sg7
I36
sg8
g98
sg19
I5
sa(dp783
g2
I50
sg3
I50
sg4
I10
sg5
I10
sg6
I46
sg7
I16
sg8
g203
sg19
I5
sa(dp784
g2
I50
sg3
I50
sg4
I10
sg5
I10
sg6
I60
sg7
I17
sg8
g248
sg19
I5
sa(dp785
g2
I50
sg3
I50
sg4
I10
sg5
I10
sg6
I19
sg7
I20
sg8
g113
sg19
I5
sa(dp786
g2
I50
sg3
I50
sg4
I10
sg5
I10
sg6
I38
sg7
I30
sg8
g94
sg19
I5
sa(dp787
g2
I50
sg3
I50
sg4
I10
sg5
I10
sg6
I36
sg7
I23
sg8
g18
sg19
I5
sa(dp788
g2
I50
sg3
I50
sg4
I10
sg5
I10
sg6
I37
sg7
I29
sg8
g224
sg19
I5
sa(dp789
g2
I50
sg3
I50
sg4
I10
sg5
I10
sg6
I19
sg7
I56
sg8
g88
sg19
I5
sa(dp790
g2
I50
sg3
I50
sg4
I10
sg5
I10
sg6
I35
sg7
I43
sg8
g108
sg19
I5
sa(dp791
g2
I50
sg3
I50
sg4
I10
sg5
I10
sg6
I34
sg7
I63
sg8
g27
sg19
I5
sa(dp792
g2
I50
sg3
I50
sg4
I10
sg5
I10
sg6
I36
sg7
I24
sg8
g64
sg19
I5
sa(dp793
g2
I50
sg3
I50
sg4
I10
sg5
I10
sg6
I38
sg7
I38
sg8
g31
sg19
I5
sa(dp794
g2
I50
sg3
I50
sg4
I10
sg5
I10
sg6
I40
sg7
I18
sg8
g179
sg19
I5
sa(dp795
g2
I50
sg3
I50
sg4
I10
sg5
I10
sg6
I23
sg7
I50
sg8
g76
sg19
I5
sa(dp796
g2
I50
sg3
I50
sg4
I10
sg5
I10
sg6
I21
sg7
I42
sg8
g136
sg19
I5
sa(dp797
g2
I50
sg3
I50
sg4
I10
sg5
I10
sg6
I20
sg7
I56
sg8
g113
sg19
I5
sa(dp798
g2
I50
sg3
I50
sg4
I10
sg5
I10
sg6
I19
sg7
I58
sg8
g203
sg19
I5
sa(dp799
g2
I50
sg3
I50
sg4
I10
sg5
I10
sg6
I47
sg7
I36
sg8
g35
sg19
I5
sa(dp800
g2
I50
sg3
I50
sg4
I10
sg5
I10
sg6
I42
sg7
I47
sg8
g84
sg19
I5
sa(dp801
g2
I50
sg3
I50
sg4
I10
sg5
I10
sg6
I25
sg7
I32
sg8
g94
sg19
I5
sa(dp802
g2
I50
sg3
I50
sg4
I10
sg5
I10
sg6
I63
sg7
I26
sg8
g145
sg19
I5
sa(dp803
g2
I50
sg3
I50
sg4
I10
sg5
I10
sg6
I42
sg7
I21
sg8
g118
sg19
I5
sa(dp804
g2
I50
sg3
I50
sg4
I10
sg5
I10
sg6
I23
sg7
I57
sg8
g43
sg19
I5
sa(dp805
g2
I50
sg3
I50
sg4
I10
sg5
I10
sg6
I26
sg7
I52
sg8
g155
sg19
I5
sa(dp806
g2
I50
sg3
I50
sg4
I10
sg5
I10
sg6
I62
sg7
I36
sg8
g224
sg19
I5
sa(dp807
g2
I50
sg3
I50
sg4
I10
sg5
I10
sg6
I61
sg7
I49
sg8
g98
sg19
I5
sa(dp808
g2
I50
sg3
I50
sg4
I10
sg5
I10
sg6
I51
sg7
I47
sg8
g218
sg19
I5
sa(dp809
g2
I50
sg3
I50
sg4
I10
sg5
I10
sg6
I40
sg7
I63
sg8
g98
sg19
I5
sa(dp810
g2
I50
sg3
I50
sg4
I10
sg5
I10
sg6
I37
sg7
I47
sg8
g224
sg19
I5
sa(dp811
g2
I50
sg3
I50
sg4
I10
sg5
I10
sg6
I15
sg7
I42
sg8
g132
sg19
I5
sa(dp812
g2
I50
sg3
I50
sg4
I10
sg5
I10
sg6
I29
sg7
I55
sg8
g88
sg19
I5
sa(dp813
g2
I50
sg3
I50
sg4
I10
sg5
I10
sg6
I26
sg7
I61
sg8
g168
sg19
I5
sa(dp814
g2
I50
sg3
I50
sg4
I10
sg5
I10
sg6
I36
sg7
I30
sg8
g118
sg19
I5
sa(dp815
g2
I50
sg3
I50
sg4
I10
sg5
I10
sg6
I49
sg7
I19
sg8
g160
sg19
I5
sa(dp816
g2
I50
sg3
I50
sg4
I10
sg5
I10
sg6
I18
sg7
I47
sg8
g160
sg19
I5
sa(dp817
g2
I50
sg3
I50
sg4
I10
sg5
I10
sg6
I31
sg7
I46
sg8
g43
sg19
I5
sa(dp818
g2
I50
sg3
I50
sg4
I10
sg5
I10
sg6
I34
sg7
I35
sg8
g218
sg19
I5
sa(dp819
g2
I50
sg3
I50
sg4
I10
sg5
I10
sg6
I42
sg7
I46
sg8
g35
sg19
I5
sa(dp820
g2
I50
sg3
I50
sg4
I10
sg5
I10
sg6
I63
sg7
I55
sg8
g39
sg19
I5
sa(dp821
g2
I50
sg3
I50
sg4
I10
sg5
I10
sg6
I48
sg7
I34
sg8
g145
sg19
I5
sa(dp822
g2
I50
sg3
I50
sg4
I10
sg5
I10
sg6
I44
sg7
I17
sg8
g118
sg19
I5
sa(dp823
g2
I50
sg3
I50
sg4
I10
sg5
I10
sg6
I57
sg7
I28
sg8
g88
sg19
I5
sa(dp824
g2
I50
sg3
I50
sg4
I10
sg5
I10
sg6
I36
sg7
I52
sg8
g108
sg19
I5
sa(dp825
g2
I50
sg3
I50
sg4
I10
sg5
I10
sg6
I62
sg7
I21
sg8
g118
sg19
I5
sa(dp826
g2
I50
sg3
I50
sg4
I10
sg5
I10
sg6
I22
sg7
I39
sg8
g208
sg19
I5
sa(dp827
g2
I50
sg3
I50
sg4
I10
sg5
I10
sg6
I28
sg7
I39
sg8
g60
sg19
I5
sa(dp828
g2
I50
sg3
I50
sg4
I10
sg5
I10
sg6
I46
sg7
I59
sg8
g179
sg19
I5
sa(dp829
g2
I50
sg3
I50
sg4
I10
sg5
I10
sg6
I50
sg7
I43
sg8
g56
sg19
I5
sa(dp830
g2
I50
sg3
I50
sg4
I10
sg5
I10
sg6
I57
sg7
I18
sg8
g94
sg19
I5
sa(dp831
g2
I50
sg3
I50
sg4
I10
sg5
I10
sg6
I27
sg7
I43
sg8
g208
sg19
I5
sa(dp832
g2
I50
sg3
I50
sg4
I10
sg5
I10
sg6
I40
sg7
I53
sg8
g76
sg19
I5
sa(dp833
g2
I50
sg3
I50
sg4
I10
sg5
I10
sg6
I61
sg7
I58
sg8
g318
sg19
I5
sa(dp834
g2
I50
sg3
I50
sg4
I10
sg5
I10
sg6
I61
sg7
I41
sg8
g88
sg19
I5
sa(dp835
g2
I50
sg3
I50
sg4
I10
sg5
I10
sg6
I57
sg7
I57
sg8
g208
sg19
I5
sa(dp836
g2
I50
sg3
I50
sg4
I10
sg5
I10
sg6
I44
sg7
I62
sg8
g27
sg19
I5
sa(dp837
g2
I50
sg3
I50
sg4
I10
sg5
I10
sg6
I62
sg7
I64
sg8
g18
sg19
I5
sa(dp838
g2
I50
sg3
I50
sg4
I10
sg5
I10
sg6
I55
sg7
I42
sg8
g136
sg19
I5
sa(dp839
g2
I50
sg3
I50
sg4
I10
sg5
I10
sg6
I25
sg7
I51
sg8
g98
sg19
I5
sa(dp840
g2
I50
sg3
I50
sg4
I10
sg5
I10
sg6
I24
sg7
I47
sg8
g76
sg19
I5
sa(dp841
g2
I50
sg3
I50
sg4
I10
sg5
I10
sg6
I44
sg7
I53
sg8
g48
sg19
I5
sa(dp842
g2
I50
sg3
I50
sg4
I10
sg5
I10
sg6
I56
sg7
I50
sg8
g64
sg19
I5
sa(dp843
g2
I50
sg3
I50
sg4
I10
sg5
I10
sg6
I51
sg7
I18
sg8
g98
sg19
I5
sa(dp844
g2
I50
sg3
I50
sg4
I10
sg5
I10
sg6
I49
sg7
I37
sg8
g160
sg19
I5
sa(dp845
g2
I50
sg3
I50
sg4
I10
sg5
I10
sg6
I57
sg7
I34
sg8
g23
sg19
I5
sa(dp846
g2
I50
sg3
I50
sg4
I10
sg5
I10
sg6
I55
sg7
I20
sg8
g113
sg19
I5
sa(dp847
g2
I50
sg3
I50
sg4
I10
sg5
I10
sg6
I50
sg7
I18
sg8
g248
sg19
I5
sa(dp848
g2
I50
sg3
I50
sg4
I10
sg5
I10
sg6
I32
sg7
I54
sg8
g31
sg19
I5
sa(dp849
g2
I50
sg3
I50
sg4
I10
sg5
I10
sg6
I49
sg7
I35
sg8
g108
sg19
I5
sa(dp850
g2
I50
sg3
I50
sg4
I10
sg5
I10
sg6
I41
sg7
I37
sg8
g102
sg19
I5
sa(dp851
g2
I50
sg3
I50
sg4
I10
sg5
I10
sg6
I36
sg7
I64
sg8
g113
sg19
I5
sa(dp852
g2
I50
sg3
I50
sg4
I10
sg5
I10
sg6
I20
sg7
I25
sg8
g39
sg19
I5
sa(dp853
g2
I50
sg3
I50
sg4
I10
sg5
I10
sg6
I32
sg7
I56
sg8
g132
sg19
I5
sa(dp854
g2
I50
sg3
I50
sg4
I10
sg5
I10
sg6
I46
sg7
I57
sg8
g98
sg19
I5
sa(dp855
g2
I50
sg3
I50
sg4
I10
sg5
I10
sg6
I30
sg7
I20
sg8
g102
sg19
I5
sa(dp856
g2
I50
sg3
I50
sg4
I10
sg5
I10
sg6
I27
sg7
I37
sg8
g145
sg19
I5
sa(dp857
g2
I50
sg3
I50
sg4
I10
sg5
I10
sg6
I52
sg7
I33
sg8
g248
sg19
I5
sa(dp858
g2
I50
sg3
I50
sg4
I10
sg5
I10
sg6
I26
sg7
I38
sg8
g118
sg19
I5
sa(dp859
g2
I50
sg3
I50
sg4
I10
sg5
I10
sg6
I19
sg7
I20
sg8
g208
sg19
I5
sa(dp860
g2
I50
sg3
I50
sg4
I10
sg5
I10
sg6
I36
sg7
I57
sg8
g39
sg19
I5
sa(dp861
g2
I50
sg3
I50
sg4
I10
sg5
I10
sg6
I21
sg7
I23
sg8
g179
sg19
I5
sa(dp862
g2
I50
sg3
I50
sg4
I10
sg5
I10
sg6
I19
sg7
I29
sg8
g23
sg19
I5
sa(dp863
g2
I50
sg3
I50
sg4
I10
sg5
I10
sg6
I54
sg7
I52
sg8
g164
sg19
I5
sa(dp864
g2
I50
sg3
I50
sg4
I10
sg5
I10
sg6
I37
sg7
I55
sg8
g84
sg19
I5
sa(dp865
g2
I50
sg3
I50
sg4
I10
sg5
I10
sg6
I26
sg7
I60
sg8
g113
sg19
I5
sa(dp866
g2
I50
sg3
I50
sg4
I10
sg5
I10
sg6
I17
sg7
I43
sg8
g145
sg19
I5
sa(dp867
g2
I50
sg3
I50
sg4
I10
sg5
I10
sg6
I41
sg7
I56
sg8
g60
sg19
I5
sa(dp868
g2
I50
sg3
I50
sg4
I10
sg5
I10
sg6
I48
sg7
I57
sg8
g108
sg19
I5
sa(dp869
g2
I50
sg3
I50
sg4
I10
sg5
I10
sg6
I22
sg7
I58
sg8
g203
sg19
I5
sa(dp870
g2
I50
sg3
I50
sg4
I10
sg5
I10
sg6
I32
sg7
I26
sg8
g43
sg19
I5
sa(dp871
g2
I50
sg3
I50
sg4
I10
sg5
I10
sg6
I18
sg7
I51
sg8
g18
sg19
I5
sa(dp872
g2
I50
sg3
I50
sg4
I10
sg5
I10
sg6
I28
sg7
I27
sg8
g118
sg19
I5
sa(dp873
g2
I50
sg3
I50
sg4
I10
sg5
I10
sg6
I49
sg7
I22
sg8
g126
sg19
I5
sa(dp874
g2
I50
sg3
I50
sg4
I10
sg5
I10
sg6
I43
sg7
I36
sg8
g23
sg19
I5
sa(dp875
g2
I50
sg3
I50
sg4
I10
sg5
I10
sg6
I21
sg7
I33
sg8
g168
sg19
I5
sa(dp876
g2
I50
sg3
I50
sg4
I10
sg5
I10
sg6
I34
sg7
I48
sg8
g64
sg19
I5
sa(dp877
g2
I50
sg3
I50
sg4
I10
sg5
I10
sg6
I58
sg7
I22
sg8
g68
sg19
I5
sa(dp878
g2
I50
sg3
I50
sg4
I10
sg5
I10
sg6
I64
sg7
I41
sg8
g35
sg19
I5
sa(dp879
g2
I50
sg3
I50
sg4
I10
sg5
I10
sg6
I15
sg7
I17
sg8
g48
sg19
I5
sa(dp880
g2
I50
sg3
I50
sg4
I10
sg5
I10
sg6
I17
sg7
I39
sg8
g98
sg19
I5
sa(dp881
g2
I50
sg3
I50
sg4
I10
sg5
I10
sg6
I48
sg7
I54
sg8
g23
sg19
I5
sa(dp882
g2
I50
sg3
I50
sg4
I10
sg5
I10
sg6
I60
sg7
I17
sg8
g88
sg19
I5
sa(dp883
g2
I50
sg3
I50
sg4
I10
sg5
I10
sg6
I51
sg7
I49
sg8
g132
sg19
I5
sa(dp884
g2
I50
sg3
I50
sg4
I10
sg5
I10
sg6
I58
sg7
I60
sg8
g72
sg19
I5
sa(dp885
g2
I50
sg3
I50
sg4
I10
sg5
I10
sg6
I29
sg7
I28
sg8
g208
sg19
I5
sa(dp886
g2
I50
sg3
I50
sg4
I10
sg5
I10
sg6
I37
sg7
I18
sg8
g84
sg19
I5
sa(dp887
g2
I50
sg3
I50
sg4
I10
sg5
I10
sg6
I44
sg7
I64
sg8
g18
sg19
I5
sa(dp888
g2
I50
sg3
I50
sg4
I10
sg5
I10
sg6
I62
sg7
I17
sg8
g35
sg19
I5
sa(dp889
g2
I50
sg3
I50
sg4
I10
sg5
I10
sg6
I54
sg7
I23
sg8
g68
sg19
I5
sa(dp890
g2
I50
sg3
I50
sg4
I10
sg5
I10
sg6
I42
sg7
I44
sg8
g31
sg19
I5
sa(dp891
g2
I50
sg3
I50
sg4
I10
sg5
I10
sg6
I25
sg7
I57
sg8
g318
sg19
I5
sa(dp892
g2
I50
sg3
I50
sg4
I10
sg5
I10
sg6
I28
sg7
I41
sg8
g113
sg19
I5
sa(dp893
g2
I50
sg3
I50
sg4
I10
sg5
I10
sg6
I41
sg7
I42
sg8
g35
sg19
I5
sa(dp894
g2
I50
sg3
I50
sg4
I10
sg5
I10
sg6
I32
sg7
I16
sg8
g72
sg19
I5
sa(dp895
g2
I50
sg3
I50
sg4
I10
sg5
I10
sg6
I25
sg7
I30
sg8
g88
sg19
I5
sa(dp896
g2
I50
sg3
I50
sg4
I10
sg5
I10
sg6
I25
sg7
I48
sg8
g76
sg19
I5
sa(dp897
g2
I50
sg3
I50
sg4
I10
sg5
I10
sg6
I28
sg7
I37
sg8
g35
sg19
I5
sa(dp898
g2
I50
sg3
I50
sg4
I10
sg5
I10
sg6
I42
sg7
I23
sg8
g56
sg19
I5
sa(dp899
g2
I50
sg3
I50
sg4
I10
sg5
I10
sg6
I36
sg7
I21
sg8
g108
sg19
I5
sa(dp900
g2
I50
sg3
I50
sg4
I10
sg5
I10
sg6
I16
sg7
I35
sg8
g60
sg19
I5
sa(dp901
g2
I50
sg3
I50
sg4
I10
sg5
I10
sg6
I51
sg7
I56
sg8
g27
sg19
I5
sa(dp902
g2
I50
sg3
I50
sg4
I10
sg5
I10
sg6
I57
sg7
I49
sg8
g208
sg19
I5
sa(dp903
g2
I50
sg3
I50
sg4
I10
sg5
I10
sg6
I45
sg7
I42
sg8
g72
sg19
I5
sa(dp904
g2
I50
sg3
I50
sg4
I10
sg5
I10
sg6
I47
sg7
I24
sg8
g155
sg19
I5
sa(dp905
g2
I50
sg3
I50
sg4
I10
sg5
I10
sg6
I44
sg7
I25
sg8
g35
sg19
I5
sa(dp906
g2
I50
sg3
I50
sg4
I10
sg5
I10
sg6
I34
sg7
I38
sg8
g31
sg19
I5
sa(dp907
g2
I50
sg3
I50
sg4
I10
sg5
I10
sg6
I51
sg7
I18
sg8
g224
sg19
I5
sa(dp908
g2
I50
sg3
I50
sg4
I10
sg5
I10
sg6
I53
sg7
I31
sg8
g218
sg19
I5
sa(dp909
g2
I50
sg3
I50
sg4
I10
sg5
I10
sg6
I42
sg7
I32
sg8
g56
sg19
I5
sa(dp910
g2
I50
sg3
I50
sg4
I10
sg5
I10
sg6
I40
sg7
I44
sg8
g43
sg19
I5
sa(dp911
g2
I50
sg3
I50
sg4
I10
sg5
I10
sg6
I29
sg7
I36
sg8
g179
sg19
I5
sa(dp912
g2
I50
sg3
I50
sg4
I10
sg5
I10
sg6
I40
sg7
I26
sg8
g43
sg19
I5
sa(dp913
g2
I50
sg3
I50
sg4
I10
sg5
I10
sg6
I41
sg7
I46
sg8
g168
sg19
I5
sa(dp914
g2
I50
sg3
I50
sg4
I10
sg5
I10
sg6
I39
sg7
I33
sg8
g318
sg19
I5
sa(dp915
g2
I50
sg3
I50
sg4
I10
sg5
I10
sg6
I63
sg7
I51
sg8
g98
sg19
I5
sa(dp916
g2
I50
sg3
I50
sg4
I10
sg5
I10
sg6
I24
sg7
I41
sg8
g203
sg19
I5
sa(dp917
g2
I50
sg3
I50
sg4
I10
sg5
I10
sg6
I55
sg7
I17
sg8
g39
sg19
I5
sa(dp918
g2
I50
sg3
I50
sg4
I10
sg5
I10
sg6
I47
sg7
I30
sg8
g126
sg19
I5
sa(dp919
g2
I50
sg3
I50
sg4
I10
sg5
I10
sg6
I63
sg7
I60
sg8
g18
sg19
I5
sa(dp920
g2
I50
sg3
I50
sg4
I10
sg5
I10
sg6
I37
sg7
I64
sg8
g39
sg19
I5
sa(dp921
g2
I50
sg3
I50
sg4
I10
sg5
I10
sg6
I27
sg7
I20
sg8
g60
sg19
I5
sa(dp922
g2
I50
sg3
I50
sg4
I10
sg5
I10
sg6
I27
sg7
I16
sg8
g118
sg19
I5
sa(dp923
g2
I50
sg3
I50
sg4
I10
sg5
I10
sg6
I26
sg7
I30
sg8
g64
sg19
I5
sa(dp924
g2
I50
sg3
I50
sg4
I10
sg5
I10
sg6
I43
sg7
I45
sg8
g98
sg19
I5
sa(dp925
g2
I50
sg3
I50
sg4
I10
sg5
I10
sg6
I61
sg7
I58
sg8
g39
sg19
I5
sa(dp926
g2
I50
sg3
I50
sg4
I10
sg5
I10
sg6
I28
sg7
I38
sg8
g318
sg19
I5
sa(dp927
g2
I50
sg3
I50
sg4
I10
sg5
I10
sg6
I48
sg7
I22
sg8
g52
sg19
I5
sa(dp928
g2
I50
sg3
I50
sg4
I10
sg5
I10
sg6
I25
sg7
I23
sg8
g160
sg19
I5
sa(dp929
g2
I50
sg3
I50
sg4
I10
sg5
I10
sg6
I39
sg7
I40
sg8
g84
sg19
I5
sa(dp930
g2
I50
sg3
I50
sg4
I10
sg5
I10
sg6
I37
sg7
I38
sg8
g39
sg19
I5
sa(dp931
g2
I50
sg3
I50
sg4
I10
sg5
I10
sg6
I48
sg7
I43
sg8
g179
sg19
I5
sa(dp932
g2
I50
sg3
I50
sg4
I10
sg5
I10
sg6
I31
sg7
I50
sg8
g248
sg19
I5
sa(dp933
g2
I50
sg3
I50
sg4
I10
sg5
I10
sg6
I38
sg7
I59
sg8
g48
sg19
I5
sa(dp934
g2
I50
sg3
I50
sg4
I10
sg5
I10
sg6
I28
sg7
I20
sg8
g27
sg19
I5
sa(dp935
g2
I50
sg3
I50
sg4
I10
sg5
I10
sg6
I22
sg7
I19
sg8
g168
sg19
I5
sa(dp936
g2
I50
sg3
I50
sg4
I10
sg5
I10
sg6
I48
sg7
I37
sg8
g203
sg19
I5
sa(dp937
g2
I50
sg3
I50
sg4
I10
sg5
I10
sg6
I22
sg7
I55
sg8
g224
sg19
I5
sa(dp938
g2
I50
sg3
I50
sg4
I10
sg5
I10
sg6
I59
sg7
I20
sg8
g145
sg19
I5
sa(dp939
g2
I50
sg3
I50
sg4
I10
sg5
I10
sg6
I32
sg7
I20
sg8
g145
sg19
I5
sa(dp940
g2
I50
sg3
I50
sg4
I10
sg5
I10
sg6
I35
sg7
I39
sg8
g56
sg19
I5
sa(dp941
g2
I50
sg3
I50
sg4
I10
sg5
I10
sg6
I20
sg7
I22
sg8
g155
sg19
I5
sa(dp942
g2
I50
sg3
I50
sg4
I10
sg5
I10
sg6
I20
sg7
I33
sg8
g155
sg19
I5
sa(dp943
g2
I50
sg3
I50
sg4
I10
sg5
I10
sg6
I38
sg7
I47
sg8
g160
sg19
I5
sa(dp944
g2
I50
sg3
I50
sg4
I10
sg5
I10
sg6
I37
sg7
I61
sg8
g248
sg19
I5
sa(dp945
g2
I50
sg3
I50
sg4
I10
sg5
I10
sg6
I26
sg7
I19
sg8
g126
sg19
I5
sa(dp946
g2
I50
sg3
I50
sg4
I10
sg5
I10
sg6
I41
sg7
I45
sg8
g39
sg19
I5
sa(dp947
g2
I50
sg3
I50
sg4
I10
sg5
I10
sg6
I23
sg7
I28
sg8
g60
sg19
I5
sa(dp948
g2
I50
sg3
I50
sg4
I10
sg5
I10
sg6
I18
sg7
I26
sg8
g108
sg19
I5
sa(dp949
g2
I50
sg3
I50
sg4
I10
sg5
I10
sg6
I18
sg7
I36
sg8
g203
sg19
I5
sa(dp950
g2
I50
sg3
I50
sg4
I10
sg5
I10
sg6
I38
sg7
I40
sg8
g18
sg19
I5
sa(dp951
g2
I50
sg3
I50
sg4
I10
sg5
I10
sg6
I22
sg7
I50
sg8
g318
sg19
I5
sa(dp952
g2
I50
sg3
I50
sg4
I10
sg5
I10
sg6
I49
sg7
I34
sg8
g72
sg19
I5
sa(dp953
g2
I50
sg3
I50
sg4
I10
sg5
I10
sg6
I47
sg7
I53
sg8
g224
sg19
I5
sa(dp954
g2
I50
sg3
I50
sg4
I10
sg5
I10
sg6
I35
sg7
I41
sg8
g76
sg19
I5
sa(dp955
g2
I50
sg3
I50
sg4
I10
sg5
I10
sg6
I23
sg7
I57
sg8
g108
sg19
I5
sa(dp956
g2
I50
sg3
I50
sg4
I10
sg5
I10
sg6
I32
sg7
I37
sg8
g98
sg19
I5
sa(dp957
g2
I50
sg3
I50
sg4
I10
sg5
I10
sg6
I26
sg7
I21
sg8
g88
sg19
I5
sa(dp958
g2
I50
sg3
I50
sg4
I10
sg5
I10
sg6
I53
sg7
I18
sg8
g84
sg19
I5
sa(dp959
g2
I50
sg3
I50
sg4
I10
sg5
I10
sg6
I56
sg7
I59
sg8
g113
sg19
I5
sa(dp960
g2
I50
sg3
I50
sg4
I10
sg5
I10
sg6
I32
sg7
I41
sg8
g203
sg19
I5
sa(dp961
g2
I50
sg3
I50
sg4
I10
sg5
I10
sg6
I32
sg7
I27
sg8
g108
sg19
I5
sa(dp962
g2
I50
sg3
I50
sg4
I10
sg5
I10
sg6
I29
sg7
I16
sg8
g113
sg19
I5
sa(dp963
g2
I50
sg3
I50
sg4
I10
sg5
I10
sg6
I53
sg7
I28
sg8
g18
sg19
I5
sa(dp964
g2
I50
sg3
I50
sg4
I10
sg5
I10
sg6
I32
sg7
I54
sg8
g118
sg19
I5
sa(dp965
g2
I50
sg3
I50
sg4
I10
sg5
I10
sg6
I54
sg7
I60
sg8
g318
sg19
I5
sa(dp966
g2
I50
sg3
I50
sg4
I10
sg5
I10
sg6
I33
sg7
I15
sg8
g39
sg19
I5
sa(dp967
g2
I50
sg3
I50
sg4
I10
sg5
I10
sg6
I64
sg7
I19
sg8
g136
sg19
I5
sa(dp968
g2
I50
sg3
I50
sg4
I10
sg5
I10
sg6
I30
sg7
I57
sg8
g218
sg19
I5
sa(dp969
g2
I50
sg3
I50
sg4
I10
sg5
I10
sg6
I48
sg7
I20
sg8
g203
sg19
I5
sa(dp970
g2
I50
sg3
I50
sg4
I10
sg5
I10
sg6
I38
sg7
I25
sg8
g126
sg19
I5
sa(dp971
g2
I50
sg3
I50
sg4
I10
sg5
I10
sg6
I38
sg7
I37
sg8
g132
sg19
I5
sa(dp972
g2
I50
sg3
I50
sg4
I10
sg5
I10
sg6
I16
sg7
I25
sg8
g102
sg19
I5
sa(dp973
g2
I50
sg3
I50
sg4
I10
sg5
I10
sg6
I25
sg7
I29
sg8
g72
sg19
I5
sa(dp974
g2
I50
sg3
I50
sg4
I10
sg5
I10
sg6
I32
sg7
I31
sg8
g60
sg19
I5
sa(dp975
g2
I50
sg3
I50
sg4
I10
sg5
I10
sg6
I64
sg7
I52
sg8
g98
sg19
I5
sa(dp976
g2
I50
sg3
I50
sg4
I10
sg5
I10
sg6
I49
sg7
I20
sg8
g52
sg19
I5
sa(dp977
g2
I50
sg3
I50
sg4
I10
sg5
I10
sg6
I19
sg7
I36
sg8
g18
sg19
I5
sa(dp978
g2
I50
sg3
I50
sg4
I10
sg5
I10
sg6
I21
sg7
I20
sg8
g60
sg19
I5
sa(dp979
g2
I50
sg3
I50
sg4
I10
sg5
I10
sg6
I20
sg7
I53
sg8
g39
sg19
I5
sa(dp980
g2
I50
sg3
I50
sg4
I10
sg5
I10
sg6
I24
sg7
I22
sg8
g102
sg19
I5
sa(dp981
g2
I50
sg3
I50
sg4
I10
sg5
I10
sg6
I64
sg7
I33
sg8
g27
sg19
I5
sa(dp982
g2
I50
sg3
I50
sg4
I10
sg5
I10
sg6
I63
sg7
I17
sg8
g68
sg19
I5
sa(dp983
g2
I50
sg3
I50
sg4
I10
sg5
I10
sg6
I33
sg7
I61
sg8
g160
sg19
I5
sa(dp984
g2
I50
sg3
I50
sg4
I10
sg5
I10
sg6
I24
sg7
I44
sg8
g48
sg19
I5
sa(dp985
g2
I50
sg3
I50
sg4
I10
sg5
I10
sg6
I53
sg7
I45
sg8
g35
sg19
I5
sa(dp986
g2
I50
sg3
I50
sg4
I10
sg5
I10
sg6
I20
sg7
I15
sg8
g132
sg19
I5
sa(dp987
g2
I50
sg3
I50
sg4
I10
sg5
I10
sg6
I38
sg7
I21
sg8
g68
sg19
I5
sa(dp988
g2
I50
sg3
I50
sg4
I10
sg5
I10
sg6
I60
sg7
I23
sg8
g126
sg19
I5
sa(dp989
g2
I50
sg3
I50
sg4
I10
sg5
I10
sg6
I62
sg7
I57
sg8
g168
sg19
I5
sa(dp990
g2
I50
sg3
I50
sg4
I10
sg5
I10
sg6
I60
sg7
I54
sg8
g56
sg19
I5
sa(dp991
g2
I50
sg3
I50
sg4
I10
sg5
I10
sg6
I58
sg7
I43
sg8
g179
sg19
I5
sa(dp992
g2
I50
sg3
I50
sg4
I10
sg5
I10
sg6
I53
sg7
I44
sg8
g132
sg19
I5
sa(dp993
g2
I50
sg3
I50
sg4
I10
sg5
I10
sg6
I61
sg7
I59
sg8
g168
sg19
I5
sa(dp994
g2
I50
sg3
I50
sg4
I10
sg5
I10
sg6
I34
sg7
I23
sg8
g145
sg19
I5
sa(dp995
g2
I50
sg3
I50
sg4
I10
sg5
I10
sg6
I27
sg7
I34
sg8
g43
sg19
I5
sa(dp996
g2
I50
sg3
I50
sg4
I10
sg5
I10
sg6
I16
sg7
I18
sg8
g118
sg19
I5
sa(dp997
g2
I50
sg3
I50
sg4
I10
sg5
I10
sg6
I25
sg7
I57
sg8
g76
sg19
I5
sa(dp998
g2
I50
sg3
I50
sg4
I10
sg5
I10
sg6
I32
sg7
I55
sg8
g179
sg19
I5
sa(dp999
g2
I50
sg3
I50
sg4
I10
sg5
I10
sg6
I30
sg7
I15
sg8
g208
sg19
I5
sa(dp1000
g2
I50
sg3
I50
sg4
I10
sg5
I10
sg6
I45
sg7
I28
sg8
g60
sg19
I5
sa(dp1001
g2
I50
sg3
I50
sg4
I10
sg5
I10
sg6
I62
sg7
I16
sg8
g108
sg19
I5
sa(dp1002
g2
I50
sg3
I50
sg4
I10
sg5
I10
sg6
I35
sg7
I33
sg8
g35
sg19
I5
sa(dp1003
g2
I50
sg3
I50
sg4
I10
sg5
I10
sg6
I20
sg7
I55
sg8
g208
sg19
I5
sa(dp1004
g2
I50
sg3
I50
sg4
I10
sg5
I10
sg6
I60
sg7
I28
sg8
g31
sg19
I5
sa(dp1005
g2
I50
sg3
I50
sg4
I10
sg5
I10
sg6
I38
sg7
I45
sg8
g18
sg19
I5
sa(dp1006
g2
I50
sg3
I50
sg4
I10
sg5
I10
sg6
I49
sg7
I53
sg8
g98
sg19
I5
sa(dp1007
g2
I50
sg3
I50
sg4
I10
sg5
I10
sg6
I64
sg7
I64
sg8
g208
sg19
I5
sa(dp1008
g2
I50
sg3
I50
sg4
I10
sg5
I10
sg6
I25
sg7
I26
sg8
g98
sg19
I5
sa(dp1009
g2
I50
sg3
I50
sg4
I10
sg5
I10
sg6
I34
sg7
I39
sg8
g35
sg19
I5
sa(dp1010
g2
I50
sg3
I50
sg4
I10
sg5
I10
sg6
I21
sg7
I26
sg8
g48
sg19
I5
sa(dp1011
g2
I50
sg3
I50
sg4
I10
sg5
I10
sg6
I33
sg7
I51
sg8
g52
sg19
I5
sa(dp1012
g2
I50
sg3
I50
sg4
I10
sg5
I10
sg6
I43
sg7
I17
sg8
g43
sg19
I5
sa(dp1013
g2
I50
sg3
I50
sg4
I10
sg5
I10
sg6
I52
sg7
I53
sg8
g43
sg19
I5
sa(dp1014
g2
I50
sg3
I50
sg4
I10
sg5
I10
sg6
I47
sg7
I39
sg8
g84
sg19
I5
sa(dp1015
g2
I50
sg3
I50
sg4
I10
sg5
I10
sg6
I26
sg7
I17
sg8
g164
sg19
I5
sa(dp1016
g2
I50
sg3
I50
sg4
I10
sg5
I10
sg6
I20
sg7
I59
sg8
g126
sg19
I5
sa(dp1017
g2
I50
sg3
I50
sg4
I10
sg5
I10
sg6
I16
sg7
I55
sg8
g98
sg19
I5
sa(dp1018
g2
I50
sg3
I50
sg4
I10
sg5
I10
sg6
I47
sg7
I50
sg8
g160
sg19
I5
sa(dp1019
g2
I50
sg3
I50
sg4
I10
sg5
I10
sg6
I31
sg7
I55
sg8
g208
sg19
I5
sa(dp1020
g2
I50
sg3
I50
sg4
I10
sg5
I10
sg6
I17
sg7
I64
sg8
g18
sg19
I5
sa(dp1021
g2
I50
sg3
I50
sg4
I10
sg5
I10
sg6
I41
sg7
I51
sg8
g31
sg19
I5
sa(dp1022
g2
I50
sg3
I50
sg4
I10
sg5
I10
sg6
I25
sg7
I58
sg8
g88
sg19
I5
sa(dp1023
g2
I50
sg3
I50
sg4
I10
sg5
I10
sg6
I59
sg7
I46
sg8
g88
sg19
I5
sa(dp1024
g2
I50
sg3
I50
sg4
I10
sg5
I10
sg6
I43
sg7
I43
sg8
g118
sg19
I5
sa(dp1025
g2
I50
sg3
I50
sg4
I10
sg5
I10
sg6
I56
sg7
I45
sg8
g208
sg19
I5
sa(dp1026
g2
I50
sg3
I50
sg4
I10
sg5
I10
sg6
I29
sg7
I49
sg8
g318
sg19
I5
sa(dp1027
g2
I50
sg3
I50
sg4
I10
sg5
I10
sg6
I64
sg7
I46
sg8
g318
sg19
I5
sa(dp1028
g2
I50
sg3
I50
sg4
I10
sg5
I10
sg6
I24
sg7
I38
sg8
g60
sg19
I5
sa(dp1029
g2
I50
sg3
I50
sg4
I10
sg5
I10
sg6
I17
sg7
I54
sg8
g35
sg19
I5
sa(dp1030
g2
I50
sg3
I50
sg4
I10
sg5
I10
sg6
I29
sg7
I55
sg8
g94
sg19
I5
sa(dp1031
g2
I50
sg3
I50
sg4
I10
sg5
I10
sg6
I27
sg7
I32
sg8
g68
sg19
I5
sa(dp1032
g2
I50
sg3
I50
sg4
I10
sg5
I10
sg6
I63
sg7
I45
sg8
g68
sg19
I5
sa(dp1033
g2
I50
sg3
I50
sg4
I10
sg5
I10
sg6
I29
sg7
I42
sg8
g68
sg19
I5
sa(dp1034
g2
I50
sg3
I50
sg4
I10
sg5
I10
sg6
I15
sg7
I52
sg8
g118
sg19
I5
sa(dp1035
g2
I50
sg3
I50
sg4
I10
sg5
I10
sg6
I34
sg7
I27
sg8
g23
sg19
I5
sa(dp1036
g2
I50
sg3
I50
sg4
I10
sg5
I10
sg6
I43
sg7
I56
sg8
g218
sg19
I5
sa(dp1037
g2
I50
sg3
I50
sg4
I10
sg5
I10
sg6
I55
sg7
I27
sg8
g118
sg19
I5
sa(dp1038
g2
I50
sg3
I50
sg4
I10
sg5
I10
sg6
I31
sg7
I60
sg8
g132
sg19
I5
sa(dp1039
g2
I50
sg3
I50
sg4
I10
sg5
I10
sg6
I54
sg7
I36
sg8
g164
sg19
I5
sa(dp1040
g2
I50
sg3
I50
sg4
I10
sg5
I10
sg6
I50
sg7
I58
sg8
g203
sg19
I5
sa(dp1041
g2
I50
sg3
I50
sg4
I10
sg5
I10
sg6
I28
sg7
I42
sg8
g179
sg19
I5
sa(dp1042
g2
I50
sg3
I50
sg4
I10
sg5
I10
sg6
I25
sg7
I40
sg8
g136
sg19
I5
sa(dp1043
g2
I50
sg3
I50
sg4
I10
sg5
I10
sg6
I19
sg7
I61
sg8
g208
sg19
I5
sa(dp1044
g2
I50
sg3
I50
sg4
I10
sg5
I10
sg6
I38
sg7
I24
sg8
g52
sg19
I5
sa(dp1045
g2
I50
sg3
I50
sg4
I10
sg5
I10
sg6
I43
sg7
I22
sg8
g56
sg19
I5
sa(dp1046
g2
I50
sg3
I50
sg4
I10
sg5
I10
sg6
I38
sg7
I27
sg8
g43
sg19
I5
sa(dp1047
g2
I50
sg3
I50
sg4
I10
sg5
I10
sg6
I21
sg7
I42
sg8
g126
sg19
I5
sa(dp1048
g2
I50
sg3
I50
sg4
I10
sg5
I10
sg6
I38
sg7
I39
sg8
g56
sg19
I5
sa(dp1049
g2
I50
sg3
I50
sg4
I10
sg5
I10
sg6
I17
sg7
I46
sg8
g68
sg19
I5
sa(dp1050
g2
I50
sg3
I50
sg4
I10
sg5
I10
sg6
I17
sg7
I58
sg8
g48
sg19
I5
sa(dp1051
g2
I50
sg3
I50
sg4
I10
sg5
I10
sg6
I64
sg7
I26
sg8
g39
sg19
I5
sa(dp1052
g2
I50
sg3
I50
sg4
I10
sg5
I10
sg6
I15
sg7
I38
sg8
g108
sg19
I5
sa(dp1053
g2
I50
sg3
I50
sg4
I10
sg5
I10
sg6
I29
sg7
I15
sg8
g31
sg19
I5
sa(dp1054
g2
I50
sg3
I50
sg4
I10
sg5
I10
sg6
I28
sg7
I25
sg8
g145
sg19
I5
sa(dp1055
g2
I50
sg3
I50
sg4
I10
sg5
I10
sg6
I46
sg7
I29
sg8
g88
sg19
I5
sa(dp1056
g2
I50
sg3
I50
sg4
I10
sg5
I10
sg6
I35
sg7
I16
sg8
g248
sg19
I5
sa(dp1057
g2
I50
sg3
I50
sg4
I10
sg5
I10
sg6
I56
sg7
I42
sg8
g27
sg19
I5
sa(dp1058
g2
I50
sg3
I50
sg4
I10
sg5
I10
sg6
I40
sg7
I45
sg8
g48
sg19
I5
sa(dp1059
g2
I50
sg3
I50
sg4
I10
sg5
I10
sg6
I29
sg7
I21
sg8
g43
sg19
I5
sa(dp1060
g2
I50
sg3
I50
sg4
I10
sg5
I10
sg6
I39
sg7
I62
sg8
g84
sg19
I5
sa(dp1061
g2
I50
sg3
I50
sg4
I10
sg5
I10
sg6
I50
sg7
I52
sg8
g27
sg19
I5
sa(dp1062
g2
I50
sg3
I50
sg4
I10
sg5
I10
sg6
I25
sg7
I23
sg8
g60
sg19
I5
sa(dp1063
g2
I50
sg3
I50
sg4
I10
sg5
I10
sg6
I23
sg7
I32
sg8
g318
sg19
I5
sa(dp1064
g2
I50
sg3
I50
sg4
I10
sg5
I10
sg6
I38
sg7
I23
sg8
g76
sg19
I5
sa(dp1065
g2
I50
sg3
I50
sg4
I10
sg5
I10
sg6
I50
sg7
I44
sg8
g136
sg19
I5
sa(dp1066
g2
I50
sg3
I50
sg4
I10
sg5
I10
sg6
I39
sg7
I48
sg8
g155
sg19
I5
sa(dp1067
g2
I50
sg3
I50
sg4
I10
sg5
I10
sg6
I15
sg7
I28
sg8
g102
sg19
I5
sa(dp1068
g2
I50
sg3
I50
sg4
I10
sg5
I10
sg6
I22
sg7
I35
sg8
g60
sg19
I5
sa(dp1069
g2
I50
sg3
I50
sg4
I10
sg5
I10
sg6
I47
sg7
I16
sg8
g136
sg19
I5
sa(dp1070
g2
I50
sg3
I50
sg4
I10
sg5
I10
sg6
I57
sg7
I39
sg8
g35
sg19
I5
sa(dp1071
g2
I50
sg3
I50
sg4
I10
sg5
I10
sg6
I64
sg7
I21
sg8
g168
sg19
I5
sa(dp1072
g2
I50
sg3
I50
sg4
I10
sg5
I10
sg6
I59
sg7
I22
sg8
g68
sg19
I5
sa(dp1073
g2
I50
sg3
I50
sg4
I10
sg5
I10
sg6
I21
sg7
I50
sg8
g72
sg19
I5
sa(dp1074
g2
I50
sg3
I50
sg4
I10
sg5
I10
sg6
I22
sg7
I64
sg8
g102
sg19
I5
sa(dp1075
g2
I50
sg3
I50
sg4
I10
sg5
I10
sg6
I40
sg7
I54
sg8
g68
sg19
I5
sa(dp1076
g2
I50
sg3
I50
sg4
I10
sg5
I10
sg6
I21
sg7
I47
sg8
g72
sg19
I5
sa(dp1077
g2
I50
sg3
I50
sg4
I10
sg5
I10
sg6
I54
sg7
I48
sg8
g56
sg19
I5
sa(dp1078
g2
I50
sg3
I50
sg4
I10
sg5
I10
sg6
I61
sg7
I34
sg8
g224
sg19
I5
sa(dp1079
g2
I50
sg3
I50
sg4
I10
sg5
I10
sg6
I27
sg7
I23
sg8
g203
sg19
I5
sa(dp1080
g2
I50
sg3
I50
sg4
I10
sg5
I10
sg6
I62
sg7
I60
sg8
g208
sg19
I5
sa(dp1081
g2
I50
sg3
I50
sg4
I10
sg5
I10
sg6
I36
sg7
I38
sg8
g52
sg19
I5
sa(dp1082
g2
I50
sg3
I50
sg4
I10
sg5
I10
sg6
I41
sg7
I21
sg8
g23
sg19
I5
sa(dp1083
g2
I50
sg3
I50
sg4
I10
sg5
I10
sg6
I24
sg7
I49
sg8
g23
sg19
I5
sa(dp1084
g2
I50
sg3
I50
sg4
I10
sg5
I10
sg6
I54
sg7
I44
sg8
g84
sg19
I5
sa(dp1085
g2
I50
sg3
I50
sg4
I10
sg5
I10
sg6
I50
sg7
I33
sg8
g145
sg19
I5
sa(dp1086
g2
I50
sg3
I50
sg4
I10
sg5
I10
sg6
I64
sg7
I31
sg8
g102
sg19
I5
sa(dp1087
g2
I50
sg3
I50
sg4
I10
sg5
I10
sg6
I31
sg7
I15
sg8
g18
sg19
I5
sa(dp1088
g2
I50
sg3
I50
sg4
I10
sg5
I10
sg6
I38
sg7
I29
sg8
g113
sg19
I5
sa(dp1089
g2
I50
sg3
I50
sg4
I10
sg5
I10
sg6
I18
sg7
I60
sg8
g318
sg19
I5
sa(dp1090
g2
I50
sg3
I50
sg4
I10
sg5
I10
sg6
I48
sg7
I61
sg8
g102
sg19
I5
sa(dp1091
g2
I50
sg3
I50
sg4
I10
sg5
I10
sg6
I44
sg7
I58
sg8
g113
sg19
I5
sa(dp1092
g2
I50
sg3
I50
sg4
I10
sg5
I10
sg6
I35
sg7
I19
sg8
g224
sg19
I5
sa(dp1093
g2
I50
sg3
I50
sg4
I10
sg5
I10
sg6
I22
sg7
I62
sg8
g88
sg19
I5
sa(dp1094
g2
I50
sg3
I50
sg4
I10
sg5
I10
sg6
I49
sg7
I26
sg8
g160
sg19
I5
sa(dp1095
g2
I50
sg3
I50
sg4
I10
sg5
I10
sg6
I45
sg7
I41
sg8
g126
sg19
I5
sa(dp1096
g2
I50
sg3
I50
sg4
I10
sg5
I10
sg6
I43
sg7
I30
sg8
g43
sg19
I5
sa(dp1097
g2
I50
sg3
I50
sg4
I10
sg5
I10
sg6
I37
sg7
I30
sg8
g98
sg19
I5
sa(dp1098
g2
I50
sg3
I50
sg4
I10
sg5
I10
sg6
I51
sg7
I17
sg8
g108
sg19
I5
sa(dp1099
g2
I50
sg3
I50
sg4
I10
sg5
I10
sg6
I41
sg7
I16
sg8
g155
sg19
I5
sa(dp1100
g2
I50
sg3
I50
sg4
I10
sg5
I10
sg6
I33
sg7
I46
sg8
g98
sg19
I5
sa(dp1101
g2
I50
sg3
I50
sg4
I10
sg5
I10
sg6
I27
sg7
I32
sg8
g208
sg19
I5
sa(dp1102
g2
I50
sg3
I50
sg4
I10
sg5
I10
sg6
I53
sg7
I33
sg8
g218
sg19
I5
sa(dp1103
g2
I50
sg3
I50
sg4
I10
sg5
I10
sg6
I38
sg7
I48
sg8
g224
sg19
I5
sa(dp1104
g2
I50
sg3
I50
sg4
I10
sg5
I10
sg6
I30
sg7
I34
sg8
g43
sg19
I5
sa(dp1105
g2
I50
sg3
I50
sg4
I10
sg5
I10
sg6
I33
sg7
I55
sg8
g224
sg19
I5
sa(dp1106
g2
I50
sg3
I50
sg4
I10
sg5
I10
sg6
I25
sg7
I58
sg8
g43
sg19
I5
sa(dp1107
g2
I50
sg3
I50
sg4
I10
sg5
I10
sg6
I34
sg7
I18
sg8
g72
sg19
I5
sa(dp1108
g2
I50
sg3
I50
sg4
I10
sg5
I10
sg6
I36
sg7
I17
sg8
g102
sg19
I5
sa(dp1109
g2
I50
sg3
I50
sg4
I10
sg5
I10
sg6
I45
sg7
I53
sg8
g31
sg19
I5
sa(dp1110
g2
I50
sg3
I50
sg4
I10
sg5
I10
sg6
I39
sg7
I47
sg8
g102
sg19
I5
sa(dp1111
g2
I50
sg3
I50
sg4
I10
sg5
I10
sg6
I60
sg7
I23
sg8
g52
sg19
I5
sa(dp1112
g2
I50
sg3
I50
sg4
I10
sg5
I10
sg6
I61
sg7
I55
sg8
g72
sg19
I5
sa(dp1113
g2
I50
sg3
I50
sg4
I10
sg5
I10
sg6
I27
sg7
I30
sg8
g72
sg19
I5
sa(dp1114
g2
I50
sg3
I50
sg4
I10
sg5
I10
sg6
I19
sg7
I25
sg8
g68
sg19
I5
sa(dp1115
g2
I50
sg3
I50
sg4
I10
sg5
I10
sg6
I31
sg7
I50
sg8
g72
sg19
I5
sa(dp1116
g2
I50
sg3
I50
sg4
I10
sg5
I10
sg6
I30
sg7
I61
sg8
g23
sg19
I5
sa(dp1117
g2
I50
sg3
I50
sg4
I10
sg5
I10
sg6
I55
sg7
I16
sg8
g56
sg19
I5
sa(dp1118
g2
I50
sg3
I50
sg4
I10
sg5
I10
sg6
I46
sg7
I52
sg8
g48
sg19
I5
sa(dp1119
g2
I50
sg3
I50
sg4
I10
sg5
I10
sg6
I64
sg7
I38
sg8
g39
sg19
I5
sa(dp1120
g2
I50
sg3
I50
sg4
I10
sg5
I10
sg6
I62
sg7
I40
sg8
g52
sg19
I5
sa(dp1121
g2
I50
sg3
I50
sg4
I10
sg5
I10
sg6
I28
sg7
I48
sg8
g118
sg19
I5
sa(dp1122
g2
I50
sg3
I50
sg4
I10
sg5
I10
sg6
I60
sg7
I63
sg8
g203
sg19
I5
sa(dp1123
g2
I50
sg3
I50
sg4
I10
sg5
I10
sg6
I34
sg7
I43
sg8
g18
sg19
I5
sa(dp1124
g2
I50
sg3
I50
sg4
I10
sg5
I10
sg6
I20
sg7
I37
sg8
g39
sg19
I5
sa(dp1125
g2
I50
sg3
I50
sg4
I10
sg5
I10
sg6
I54
sg7
I44
sg8
g43
sg19
I5
sa(dp1126
g2
I50
sg3
I50
sg4
I10
sg5
I10
sg6
I49
sg7
I23
sg8
g18
sg19
I5
sa(dp1127
g2
I50
sg3
I50
sg4
I10
sg5
I10
sg6
I30
sg7
I54
sg8
g248
sg19
I5
sa(dp1128
g2
I50
sg3
I50
sg4
I10
sg5
I10
sg6
I27
sg7
I29
sg8
g179
sg19
I5
sa(dp1129
g2
I50
sg3
I50
sg4
I10
sg5
I10
sg6
I40
sg7
I55
sg8
g248
sg19
I5
sa(dp1130
g2
I50
sg3
I50
sg4
I10
sg5
I10
sg6
I52
sg7
I24
sg8
g76
sg19
I5
sa(dp1131
g2
I50
sg3
I50
sg4
I10
sg5
I10
sg6
I43
sg7
I61
sg8
g64
sg19
I5
sa(dp1132
g2
I50
sg3
I50
sg4
I10
sg5
I10
sg6
I47
sg7
I23
sg8
g18
sg19
I5
sa(dp1133
g2
I50
sg3
I50
sg4
I10
sg5
I10
sg6
I44
sg7
I54
sg8
g203
sg19
I5
sa(dp1134
g2
I50
sg3
I50
sg4
I10
sg5
I10
sg6
I26
sg7
I43
sg8
g64
sg19
I5
sa(dp1135
g2
I50
sg3
I50
sg4
I10
sg5
I10
sg6
I57
sg7
I41
sg8
g248
sg19
I5
sa(dp1136
g2
I50
sg3
I50
sg4
I10
sg5
I10
sg6
I36
sg7
I24
sg8
g39
sg19
I5
sa(dp1137
g2
I50
sg3
I50
sg4
I10
sg5
I10
sg6
I55
sg7
I28
sg8
g48
sg19
I5
sa(dp1138
g2
I50
sg3
I50
sg4
I10
sg5
I10
sg6
I61
sg7
I51
sg8
g179
sg19
I5
sa(dp1139
g2
I50
sg3
I50
sg4
I10
sg5
I10
sg6
I37
sg7
I42
sg8
g132
sg19
I5
sa(dp1140
g2
I50
sg3
I50
sg4
I10
sg5
I10
sg6
I15
sg7
I27
sg8
g102
sg19
I5
sa(dp1141
g2
I50
sg3
I50
sg4
I10
sg5
I10
sg6
I51
sg7
I18
sg8
g56
sg19
I5
sa(dp1142
g2
I50
sg3
I50
sg4
I10
sg5
I10
sg6
I17
sg7
I43
sg8
g248
sg19
I5
sa(dp1143
g2
I50
sg3
I50
sg4
I10
sg5
I10
sg6
I36
sg7
I54
sg8
g145
sg19
I5
sa(dp1144
g2
I50
sg3
I50
sg4
I10
sg5
I10
sg6
I21
sg7
I44
sg8
g76
sg19
I5
sa(dp1145
g2
I50
sg3
I50
sg4
I10
sg5
I10
sg6
I29
sg7
I55
sg8
g168
sg19
I5
sa(dp1146
g2
I50
sg3
I50
sg4
I10
sg5
I10
sg6
I33
sg7
I48
sg8
g126
sg19
I5
sa(dp1147
g2
I50
sg3
I50
sg4
I10
sg5
I10
sg6
I47
sg7
I40
sg8
g56
sg19
I5
sa(dp1148
g2
I50
sg3
I50
sg4
I10
sg5
I10
sg6
I42
sg7
I37
sg8
g248
sg19
I5
sa(dp1149
g2
I50
sg3
I50
sg4
I10
sg5
I10
sg6
I39
sg7
I29
sg8
g23
sg19
I5
sa(dp1150
g2
I50
sg3
I50
sg4
I10
sg5
I10
sg6
I54
sg7
I29
sg8
g108
sg19
I5
sa(dp1151
g2
I50
sg3
I50
sg4
I10
sg5
I10
sg6
I56
sg7
I50
sg8
g76
sg19
I5
sa(dp1152
g2
I50
sg3
I50
sg4
I10
sg5
I10
sg6
I36
sg7
I44
sg8
g203
sg19
I5
sa(dp1153
g2
I50
sg3
I50
sg4
I10
sg5
I10
sg6
I24
sg7
I48
sg8
g164
sg19
I5
sa(dp1154
g2
I50
sg3
I50
sg4
I10
sg5
I10
sg6
I22
sg7
I18
sg8
g68
sg19
I5
sa(dp1155
g2
I50
sg3
I50
sg4
I10
sg5
I10
sg6
I49
sg7
I36
sg8
g35
sg19
I5
sa(dp1156
g2
I50
sg3
I50
sg4
I10
sg5
I10
sg6
I34
sg7
I49
sg8
g224
sg19
I5
sa(dp1157
g2
I50
sg3
I50
sg4
I10
sg5
I10
sg6
I61
sg7
I60
sg8
g35
sg19
I5
sa(dp1158
g2
I50
sg3
I50
sg4
I10
sg5
I10
sg6
I24
sg7
I43
sg8
g43
sg19
I5
sa(dp1159
g2
I50
sg3
I50
sg4
I10
sg5
I10
sg6
I45
sg7
I64
sg8
g98
sg19
I5
sa(dp1160
g2
I50
sg3
I50
sg4
I10
sg5
I10
sg6
I25
sg7
I29
sg8
g136
sg19
I5
sa(dp1161
g2
I50
sg3
I50
sg4
I10
sg5
I10
sg6
I40
sg7
I21
sg8
g39
sg19
I5
sa(dp1162
g2
I50
sg3
I50
sg4
I10
sg5
I10
sg6
I57
sg7
I32
sg8
g136
sg19
I5
sa(dp1163
g2
I50
sg3
I50
sg4
I10
sg5
I10
sg6
I33
sg7
I32
sg8
g318
sg19
I5
sa(dp1164
g2
I50
sg3
I50
sg4
I10
sg5
I10
sg6
I29
sg7
I33
sg8
g84
sg19
I5
sa(dp1165
g2
I50
sg3
I50
sg4
I10
sg5
I10
sg6
I31
sg7
I53
sg8
g56
sg19
I5
sa(dp1166
g2
I50
sg3
I50
sg4
I10
sg5
I10
sg6
I40
sg7
I58
sg8
g31
sg19
I5
sa(dp1167
g2
I50
sg3
I50
sg4
I10
sg5
I10
sg6
I21
sg7
I51
sg8
g72
sg19
I5
sa(dp1168
g2
I50
sg3
I50
sg4
I10
sg5
I10
sg6
I40
sg7
I28
sg8
g43
sg19
I5
sa(dp1169
g2
I50
sg3
I50
sg4
I10
sg5
I10
sg6
I30
sg7
I31
sg8
g164
sg19
I5
sa(dp1170
g2
I50
sg3
I50
sg4
I10
sg5
I10
sg6
I54
sg7
I52
sg8
g43
sg19
I5
sa(dp1171
g2
I50
sg3
I50
sg4
I10
sg5
I10
sg6
I46
sg7
I28
sg8
g27
sg19
I5
sa(dp1172
g2
I50
sg3
I50
sg4
I10
sg5
I10
sg6
I42
sg7
I34
sg8
g118
sg19
I5
sa(dp1173
g2
I50
sg3
I50
sg4
I10
sg5
I10
sg6
I29
sg7
I31
sg8
g208
sg19
I5
sa(dp1174
g2
I50
sg3
I50
sg4
I10
sg5
I10
sg6
I54
sg7
I17
sg8
g23
sg19
I5
sa(dp1175
g2
I50
sg3
I50
sg4
I10
sg5
I10
sg6
I58
sg7
I35
sg8
g248
sg19
I5
sa(dp1176
g2
I50
sg3
I50
sg4
I10
sg5
I10
sg6
I44
sg7
I26
sg8
g72
sg19
I5
sa(dp1177
g2
I50
sg3
I50
sg4
I10
sg5
I10
sg6
I51
sg7
I32
sg8
g168
sg19
I5
sa(dp1178
g2
I50
sg3
I50
sg4
I10
sg5
I10
sg6
I33
sg7
I22
sg8
g84
sg19
I5
sa(dp1179
g2
I50
sg3
I50
sg4
I10
sg5
I10
sg6
I34
sg7
I53
sg8
g98
sg19
I5
sa(dp1180
g2
I50
sg3
I50
sg4
I10
sg5
I10
sg6
I52
sg7
I51
sg8
g72
sg19
I5
sa(dp1181
g2
I50
sg3
I50
sg4
I10
sg5
I10
sg6
I55
sg7
I30
sg8
g64
sg19
I5
sa(dp1182
g2
I50
sg3
I50
sg4
I10
sg5
I10
sg6
I45
sg7
I33
sg8
g39
sg19
I5
sa(dp1183
g2
I50
sg3
I50
sg4
I10
sg5
I10
sg6
I54
sg7
I53
sg8
g108
sg19
I5
sa(dp1184
g2
I50
sg3
I50
sg4
I10
sg5
I10
sg6
I54
sg7
I53
sg8
g72
sg19
I5
sa(dp1185
g2
I50
sg3
I50
sg4
I10
sg5
I10
sg6
I45
sg7
I39
sg8
g43
sg19
I5
sa(dp1186
g2
I50
sg3
I50
sg4
I10
sg5
I10
sg6
I42
sg7
I64
sg8
g132
sg19
I5
sa(dp1187
g2
I50
sg3
I50
sg4
I10
sg5
I10
sg6
I57
sg7
I16
sg8
g136
sg19
I5
sa(dp1188
g2
I50
sg3
I50
sg4
I10
sg5
I10
sg6
I16
sg7
I52
sg8
g218
sg19
I5
sa(dp1189
g2
I50
sg3
I50
sg4
I10
sg5
I10
sg6
I25
sg7
I51
sg8
g203
sg19
I5
sa(dp1190
g2
I50
sg3
I50
sg4
I10
sg5
I10
sg6
I41
sg7
I17
sg8
g35
sg19
I5
sa(dp1191
g2
I50
sg3
I50
sg4
I10
sg5
I10
sg6
I18
sg7
I56
sg8
g126
sg19
I5
sa(dp1192
g2
I50
sg3
I50
sg4
I10
sg5
I10
sg6
I57
sg7
I19
sg8
g224
sg19
I5
sa(dp1193
g2
I50
sg3
I50
sg4
I10
sg5
I10
sg6
I40
sg7
I55
sg8
g98
sg19
I5
sa(dp1194
g2
I50
sg3
I50
sg4
I10
sg5
I10
sg6
I40
sg7
I39
sg8
g52
sg19
I5
sa(dp1195
g2
I50
sg3
I50
sg4
I10
sg5
I10
sg6
I42
sg7
I31
sg8
g35
sg19
I5
sa(dp1196
g2
I50
sg3
I50
sg4
I10
sg5
I10
sg6
I63
sg7
I48
sg8
g35
sg19
I5
sa(dp1197
g2
I50
sg3
I50
sg4
I10
sg5
I10
sg6
I56
sg7
I37
sg8
g132
sg19
I5
sa(dp1198
g2
I50
sg3
I50
sg4
I10
sg5
I10
sg6
I22
sg7
I36
sg8
g18
sg19
I5
sa(dp1199
g2
I50
sg3
I50
sg4
I10
sg5
I10
sg6
I59
sg7
I30
sg8
g155
sg19
I5
sa(dp1200
g2
I50
sg3
I50
sg4
I10
sg5
I10
sg6
I26
sg7
I44
sg8
g168
sg19
I5
sa(dp1201
g2
I50
sg3
I50
sg4
I10
sg5
I10
sg6
I60
sg7
I59
sg8
g98
sg19
I5
sa(dp1202
g2
I50
sg3
I50
sg4
I10
sg5
I10
sg6
I17
sg7
I20
sg8
g60
sg19
I5
sa(dp1203
g2
I50
sg3
I50
sg4
I10
sg5
I10
sg6
I38
sg7
I58
sg8
g88
sg19
I5
sa(dp1204
g2
I50
sg3
I50
sg4
I10
sg5
I10
sg6
I51
sg7
I56
sg8
g72
sg19
I5
sa(dp1205
g2
I50
sg3
I50
sg4
I10
sg5
I10
sg6
I27
sg7
I60
sg8
g43
sg19
I5
sa(dp1206
g2
I50
sg3
I50
sg4
I10
sg5
I10
sg6
I62
sg7
I44
sg8
g18
sg19
I5
sa(dp1207
g2
I50
sg3
I50
sg4
I10
sg5
I10
sg6
I56
sg7
I62
sg8
g98
sg19
I5
sa(dp1208
g2
I50
sg3
I50
sg4
I10
sg5
I10
sg6
I39
sg7
I23
sg8
g43
sg19
I5
sa(dp1209
g2
I50
sg3
I50
sg4
I10
sg5
I10
sg6
I28
sg7
I61
sg8
g155
sg19
I5
sa(dp1210
g2
I50
sg3
I50
sg4
I10
sg5
I10
sg6
I38
sg7
I51
sg8
g18
sg19
I5
sa(dp1211
g2
I50
sg3
I50
sg4
I10
sg5
I10
sg6
I31
sg7
I28
sg8
g179
sg19
I5
sa(dp1212
g2
I50
sg3
I50
sg4
I10
sg5
I10
sg6
I25
sg7
I47
sg8
g94
sg19
I5
sa(dp1213
g2
I50
sg3
I50
sg4
I10
sg5
I10
sg6
I27
sg7
I15
sg8
g218
sg19
I5
sa(dp1214
g2
I50
sg3
I50
sg4
I10
sg5
I10
sg6
I53
sg7
I32
sg8
g132
sg19
I5
sa(dp1215
g2
I50
sg3
I50
sg4
I10
sg5
I10
sg6
I15
sg7
I41
sg8
g145
sg19
I5
sa(dp1216
g2
I50
sg3
I50
sg4
I10
sg5
I10
sg6
I42
sg7
I60
sg8
g118
sg19
I5
sa(dp1217
g2
I50
sg3
I50
sg4
I10
sg5
I10
sg6
I44
sg7
I58
sg8
g72
sg19
I5
sa(dp1218
g2
I50
sg3
I50
sg4
I10
sg5
I10
sg6
I24
sg7
I52
sg8
g68
sg19
I5
sa(dp1219
g2
I50
sg3
I50
sg4
I10
sg5
I10
sg6
I42
sg7
I63
sg8
g179
sg19
I5
sa(dp1220
g2
I50
sg3
I50
sg4
I10
sg5
I10
sg6
I30
sg7
I22
sg8
g76
sg19
I5
sa(dp1221
g2
I50
sg3
I50
sg4
I10
sg5
I10
sg6
I22
sg7
I15
sg8
g218
sg19
I5
sa(dp1222
g2
I50
sg3
I50
sg4
I10
sg5
I10
sg6
I64
sg7
I36
sg8
g113
sg19
I5
sa(dp1223
g2
I50
sg3
I50
sg4
I10
sg5
I10
sg6
I42
sg7
I49
sg8
g68
sg19
I5
sa(dp1224
g2
I50
sg3
I50
sg4
I10
sg5
I10
sg6
I59
sg7
I27
sg8
g68
sg19
I5
sa(dp1225
g2
I50
sg3
I50
sg4
I10
sg5
I10
sg6
I42
sg7
I25
sg8
g218
sg19
I5
sa(dp1226
g2
I50
sg3
I50
sg4
I10
sg5
I10
sg6
I60
sg7
I59
sg8
g318
sg19
I5
sa(dp1227
g2
I50
sg3
I50
sg4
I10
sg5
I10
sg6
I47
sg7
I50
sg8
g52
sg19
I5
sa(dp1228
g2
I50
sg3
I50
sg4
I10
sg5
I10
sg6
I37
sg7
I23
sg8
g60
sg19
I5
sa(dp1229
g2
I50
sg3
I50
sg4
I10
sg5
I10
sg6
I63
sg7
I51
sg8
g72
sg19
I5
sa(dp1230
g2
I50
sg3
I50
sg4
I10
sg5
I10
sg6
I63
sg7
I61
sg8
g39
sg19
I5
sa(dp1231
g2
I50
sg3
I50
sg4
I10
sg5
I10
sg6
I18
sg7
I34
sg8
g179
sg19
I5
sa(dp1232
g2
I50
sg3
I50
sg4
I10
sg5
I10
sg6
I46
sg7
I57
sg8
g84
sg19
I5
sa(dp1233
g2
I50
sg3
I50
sg4
I10
sg5
I10
sg6
I42
sg7
I64
sg8
g136
sg19
I5
sa(dp1234
g2
I50
sg3
I50
sg4
I10
sg5
I10
sg6
I29
sg7
I31
sg8
g35
sg19
I5
sa(dp1235
g2
I50
sg3
I50
sg4
I10
sg5
I10
sg6
I23
sg7
I39
sg8
g48
sg19
I5
sa(dp1236
g2
I50
sg3
I50
sg4
I10
sg5
I10
sg6
I45
sg7
I15
sg8
g88
sg19
I5
sa(dp1237
g2
I50
sg3
I50
sg4
I10
sg5
I10
sg6
I20
sg7
I18
sg8
g164
sg19
I5
sa(dp1238
g2
I50
sg3
I50
sg4
I10
sg5
I10
sg6
I57
sg7
I35
sg8
g136
sg19
I5
sa(dp1239
g2
I50
sg3
I50
sg4
I10
sg5
I10
sg6
I38
sg7
I54
sg8
g145
sg19
I5
sa(dp1240
g2
I50
sg3
I50
sg4
I10
sg5
I10
sg6
I25
sg7
I34
sg8
g132
sg19
I5
sa(dp1241
g2
I50
sg3
I50
sg4
I10
sg5
I10
sg6
I62
sg7
I34
sg8
g108
sg19
I5
sa(dp1242
g2
I50
sg3
I50
sg4
I10
sg5
I10
sg6
I36
sg7
I36
sg8
g208
sg19
I5
sa(dp1243
g2
I50
sg3
I50
sg4
I10
sg5
I10
sg6
I63
sg7
I25
sg8
g224
sg19
I5
sa(dp1244
g2
I50
sg3
I50
sg4
I10
sg5
I10
sg6
I45
sg7
I61
sg8
g155
sg19
I5
sa(dp1245
g2
I50
sg3
I50
sg4
I10
sg5
I10
sg6
I44
sg7
I33
sg8
g155
sg19
I5
sa(dp1246
g2
I50
sg3
I50
sg4
I10
sg5
I10
sg6
I64
sg7
I15
sg8
g126
sg19
I5
sa(dp1247
g2
I50
sg3
I50
sg4
I10
sg5
I10
sg6
I25
sg7
I51
sg8
g318
sg19
I5
sa(dp1248
g2
I50
sg3
I50
sg4
I10
sg5
I10
sg6
I30
sg7
I35
sg8
g31
sg19
I5
sa(dp1249
g2
I50
sg3
I50
sg4
I10
sg5
I10
sg6
I19
sg7
I20
sg8
g31
sg19
I5
sa(dp1250
g2
I50
sg3
I50
sg4
I10
sg5
I10
sg6
I20
sg7
I37
sg8
g84
sg19
I5
sa(dp1251
g2
I50
sg3
I50
sg4
I10
sg5
I10
sg6
I30
sg7
I51
sg8
g179
sg19
I5
sa(dp1252
g2
I50
sg3
I50
sg4
I10
sg5
I10
sg6
I42
sg7
I41
sg8
g43
sg19
I5
sa(dp1253
g2
I50
sg3
I50
sg4
I10
sg5
I10
sg6
I43
sg7
I16
sg8
g179
sg19
I5
sa(dp1254
g2
I50
sg3
I50
sg4
I10
sg5
I10
sg6
I48
sg7
I40
sg8
g72
sg19
I5
sa(dp1255
g2
I50
sg3
I50
sg4
I10
sg5
I10
sg6
I61
sg7
I60
sg8
g136
sg19
I5
sa(dp1256
g2
I50
sg3
I50
sg4
I10
sg5
I10
sg6
I48
sg7
I47
sg8
g48
sg19
I5
sa(dp1257
g2
I50
sg3
I50
sg4
I10
sg5
I10
sg6
I45
sg7
I20
sg8
g72
sg19
I5
sa(dp1258
g2
I50
sg3
I50
sg4
I10
sg5
I10
sg6
I45
sg7
I63
sg8
g52
sg19
I5
sa(dp1259
g2
I50
sg3
I50
sg4
I10
sg5
I10
sg6
I29
sg7
I17
sg8
g318
sg19
I5
sa(dp1260
g2
I50
sg3
I50
sg4
I10
sg5
I10
sg6
I49
sg7
I47
sg8
g98
sg19
I5
sa(dp1261
g2
I50
sg3
I50
sg4
I10
sg5
I10
sg6
I15
sg7
I64
sg8
g179
sg19
I5
sa(dp1262
g2
I50
sg3
I50
sg4
I10
sg5
I10
sg6
I36
sg7
I34
sg8
g318
sg19
I5
sa(dp1263
g2
I50
sg3
I50
sg4
I10
sg5
I10
sg6
I53
sg7
I18
sg8
g60
sg19
I5
sa(dp1264
g2
I50
sg3
I50
sg4
I10
sg5
I10
sg6
I19
sg7
I49
sg8
g160
sg19
I5
sa(dp1265
g2
I50
sg3
I50
sg4
I10
sg5
I10
sg6
I23
sg7
I46
sg8
g88
sg19
I5
sa(dp1266
g2
I50
sg3
I50
sg4
I10
sg5
I10
sg6
I47
sg7
I63
sg8
g76
sg19
I5
sa(dp1267
g2
I50
sg3
I50
sg4
I10
sg5
I10
sg6
I21
sg7
I27
sg8
g84
sg19
I5
sa(dp1268
g2
I50
sg3
I50
sg4
I10
sg5
I10
sg6
I48
sg7
I17
sg8
g318
sg19
I5
sa(dp1269
g2
I50
sg3
I50
sg4
I10
sg5
I10
sg6
I21
sg7
I61
sg8
g164
sg19
I5
sa(dp1270
g2
I50
sg3
I50
sg4
I10
sg5
I10
sg6
I53
sg7
I22
sg8
g27
sg19
I5
sa(dp1271
g2
I50
sg3
I50
sg4
I10
sg5
I10
sg6
I36
sg7
I23
sg8
g64
sg19
I5
sa(dp1272
g2
I50
sg3
I50
sg4
I10
sg5
I10
sg6
I36
sg7
I34
sg8
g68
sg19
I5
sa(dp1273
g2
I50
sg3
I50
sg4
I10
sg5
I10
sg6
I41
sg7
I27
sg8
g218
sg19
I5
sa(dp1274
g2
I50
sg3
I50
sg4
I10
sg5
I10
sg6
I46
sg7
I25
sg8
g94
sg19
I5
sa(dp1275
g2
I50
sg3
I50
sg4
I10
sg5
I10
sg6
I37
sg7
I60
sg8
g48
sg19
I5
sa(dp1276
g2
I50
sg3
I50
sg4
I10
sg5
I10
sg6
I47
sg7
I61
sg8
g208
sg19
I5
sa(dp1277
g2
I50
sg3
I50
sg4
I10
sg5
I10
sg6
I46
sg7
I30
sg8
g145
sg19
I5
sa(dp1278
g2
I50
sg3
I50
sg4
I10
sg5
I10
sg6
I33
sg7
I59
sg8
g318
sg19
I5
sa(dp1279
g2
I50
sg3
I50
sg4
I10
sg5
I10
sg6
I50
sg7
I21
sg8
g68
sg19
I5
sa(dp1280
g2
I50
sg3
I50
sg4
I10
sg5
I10
sg6
I40
sg7
I56
sg8
g98
sg19
I5
sa(dp1281
g2
I50
sg3
I50
sg4
I10
sg5
I10
sg6
I37
sg7
I23
sg8
g39
sg19
I5
sa(dp1282
g2
I50
sg3
I50
sg4
I10
sg5
I10
sg6
I47
sg7
I28
sg8
g88
sg19
I5
sa(dp1283
g2
I50
sg3
I50
sg4
I10
sg5
I10
sg6
I64
sg7
I48
sg8
g35
sg19
I5
sa(dp1284
g2
I50
sg3
I50
sg4
I10
sg5
I10
sg6
I44
sg7
I18
sg8
g218
sg19
I5
sa(dp1285
g2
I50
sg3
I50
sg4
I10
sg5
I10
sg6
I56
sg7
I41
sg8
g318
sg19
I5
sa(dp1286
g2
I50
sg3
I50
sg4
I10
sg5
I10
sg6
I27
sg7
I53
sg8
g248
sg19
I5
sa(dp1287
g2
I50
sg3
I50
sg4
I10
sg5
I10
sg6
I41
sg7
I21
sg8
g52
sg19
I5
sa(dp1288
g2
I50
sg3
I50
sg4
I10
sg5
I10
sg6
I38
sg7
I63
sg8
g126
sg19
I5
sa(dp1289
g2
I50
sg3
I50
sg4
I10
sg5
I10
sg6
I41
sg7
I26
sg8
g68
sg19
I5
sa(dp1290
g2
I50
sg3
I50
sg4
I10
sg5
I10
sg6
I44
sg7
I37
sg8
g164
sg19
I5
sa(dp1291
g2
I50
sg3
I50
sg4
I10
sg5
I10
sg6
I26
sg7
I17
sg8
g64
sg19
I5
sa(dp1292
g2
I50
sg3
I50
sg4
I10
sg5
I10
sg6
I49
sg7
I51
sg8
g18
sg19
I5
sa(dp1293
g2
I50
sg3
I50
sg4
I10
sg5
I10
sg6
I18
sg7
I40
sg8
g98
sg19
I5
sa(dp1294
g2
I50
sg3
I50
sg4
I10
sg5
I10
sg6
I18
sg7
I27
sg8
g52
sg19
I5
sa(dp1295
g2
I50
sg3
I50
sg4
I10
sg5
I10
sg6
I53
sg7
I58
sg8
g132
sg19
I5
sa(dp1296
g2
I50
sg3
I50
sg4
I10
sg5
I10
sg6
I20
sg7
I35
sg8
g102
sg19
I5
sa(dp1297
g2
I50
sg3
I50
sg4
I10
sg5
I10
sg6
I37
sg7
I44
sg8
g318
sg19
I5
sa(dp1298
g2
I50
sg3
I50
sg4
I10
sg5
I10
sg6
I30
sg7
I57
sg8
g31
sg19
I5
sa(dp1299
g2
I50
sg3
I50
sg4
I10
sg5
I10
sg6
I30
sg7
I33
sg8
g48
sg19
I5
sa(dp1300
g2
I50
sg3
I50
sg4
I10
sg5
I10
sg6
I20
sg7
I57
sg8
g145
sg19
I5
sa(dp1301
g2
I50
sg3
I50
sg4
I10
sg5
I10
sg6
I50
sg7
I29
sg8
g145
sg19
I5
sa(dp1302
g2
I50
sg3
I50
sg4
I10
sg5
I10
sg6
I38
sg7
I56
sg8
g132
sg19
I5
sa(dp1303
g2
I50
sg3
I50
sg4
I10
sg5
I10
sg6
I20
sg7
I18
sg8
g76
sg19
I5
sa(dp1304
g2
I50
sg3
I50
sg4
I10
sg5
I10
sg6
I28
sg7
I45
sg8
g84
sg19
I5
sa(dp1305
g2
I50
sg3
I50
sg4
I10
sg5
I10
sg6
I42
sg7
I38
sg8
g318
sg19
I5
sa(dp1306
g2
I50
sg3
I50
sg4
I10
sg5
I10
sg6
I62
sg7
I20
sg8
g18
sg19
I5
sa(dp1307
g2
I50
sg3
I50
sg4
I10
sg5
I10
sg6
I34
sg7
I34
sg8
g164
sg19
I5
sa(dp1308
g2
I50
sg3
I50
sg4
I10
sg5
I10
sg6
I42
sg7
I17
sg8
g136
sg19
I5
sa(dp1309
g2
I50
sg3
I50
sg4
I10
sg5
I10
sg6
I30
sg7
I62
sg8
g203
sg19
I5
sa(dp1310
g2
I50
sg3
I50
sg4
I10
sg5
I10
sg6
I34
sg7
I36
sg8
g31
sg19
I5
sa(dp1311
g2
I50
sg3
I50
sg4
I10
sg5
I10
sg6
I39
sg7
I30
sg8
g208
sg19
I5
sa(dp1312
g2
I50
sg3
I50
sg4
I10
sg5
I10
sg6
I50
sg7
I60
sg8
g88
sg19
I5
sa(dp1313
g2
I50
sg3
I50
sg4
I10
sg5
I10
sg6
I45
sg7
I42
sg8
g248
sg19
I5
sa(dp1314
g2
I50
sg3
I50
sg4
I10
sg5
I10
sg6
I54
sg7
I22
sg8
g168
sg19
I5
sa(dp1315
g2
I50
sg3
I50
sg4
I10
sg5
I10
sg6
I62
sg7
I21
sg8
g52
sg19
I5
sa(dp1316
g2
I50
sg3
I50
sg4
I10
sg5
I10
sg6
I45
sg7
I34
sg8
g60
sg19
I5
sa(dp1317
g2
I50
sg3
I50
sg4
I10
sg5
I10
sg6
I39
sg7
I26
sg8
g48
sg19
I5
sa(dp1318
g2
I50
sg3
I50
sg4
I10
sg5
I10
sg6
I21
sg7
I61
sg8
g56
sg19
I5
sa(dp1319
g2
I50
sg3
I50
sg4
I10
sg5
I10
sg6
I26
sg7
I54
sg8
g208
sg19
I5
sa(dp1320
g2
I50
sg3
I50
sg4
I10
sg5
I10
sg6
I53
sg7
I15
sg8
g52
sg19
I5
sa(dp1321
g2
I50
sg3
I50
sg4
I10
sg5
I10
sg6
I62
sg7
I18
sg8
g218
sg19
I5
sa(dp1322
g2
I50
sg3
I50
sg4
I10
sg5
I10
sg6
I58
sg7
I61
sg8
g203
sg19
I5
sa(dp1323
g2
I50
sg3
I50
sg4
I10
sg5
I10
sg6
I46
sg7
I23
sg8
g60
sg19
I5
sa(dp1324
g2
I50
sg3
I50
sg4
I10
sg5
I10
sg6
I50
sg7
I43
sg8
g72
sg19
I5
sa(dp1325
g2
I50
sg3
I50
sg4
I10
sg5
I10
sg6
I20
sg7
I49
sg8
g318
sg19
I5
sa(dp1326
g2
I50
sg3
I50
sg4
I10
sg5
I10
sg6
I50
sg7
I50
sg8
g179
sg19
I5
sa(dp1327
g2
I50
sg3
I50
sg4
I10
sg5
I10
sg6
I59
sg7
I60
sg8
g94
sg19
I5
sa(dp1328
g2
I50
sg3
I50
sg4
I10
sg5
I10
sg6
I36
sg7
I37
sg8
g98
sg19
I5
sa(dp1329
g2
I50
sg3
I50
sg4
I10
sg5
I10
sg6
I41
sg7
I17
sg8
g108
sg19
I5
sa(dp1330
g2
I50
sg3
I50
sg4
I10
sg5
I10
sg6
I34
sg7
I28
sg8
g94
sg19
I5
sa(dp1331
g2
I50
sg3
I50
sg4
I10
sg5
I10
sg6
I63
sg7
I25
sg8
g88
sg19
I5
sa(dp1332
g2
I50
sg3
I50
sg4
I10
sg5
I10
sg6
I22
sg7
I20
sg8
g64
sg19
I5
sa(dp1333
g2
I50
sg3
I50
sg4
I10
sg5
I10
sg6
I16
sg7
I60
sg8
g136
sg19
I5
sa(dp1334
g2
I50
sg3
I50
sg4
I10
sg5
I10
sg6
I40
sg7
I44
sg8
g155
sg19
I5
sa(dp1335
g2
I50
sg3
I50
sg4
I10
sg5
I10
sg6
I40
sg7
I41
sg8
g132
sg19
I5
sa(dp1336
g2
I50
sg3
I50
sg4
I10
sg5
I10
sg6
I64
sg7
I43
sg8
g60
sg19
I5
sa(dp1337
g2
I50
sg3
I50
sg4
I10
sg5
I10
sg6
I44
sg7
I44
sg8
g52
sg19
I5
sa(dp1338
g2
I50
sg3
I50
sg4
I10
sg5
I10
sg6
I31
sg7
I28
sg8
g98
sg19
I5
sa(dp1339
g2
I50
sg3
I50
sg4
I10
sg5
I10
sg6
I34
sg7
I49
sg8
g203
sg19
I5
sa(dp1340
g2
I50
sg3
I50
sg4
I10
sg5
I10
sg6
I48
sg7
I53
sg8
g52
sg19
I5
sa(dp1341
g2
I50
sg3
I50
sg4
I10
sg5
I10
sg6
I18
sg7
I33
sg8
g43
sg19
I5
sa(dp1342
g2
I50
sg3
I50
sg4
I10
sg5
I10
sg6
I42
sg7
I42
sg8
g132
sg19
I5
sa(dp1343
g2
I50
sg3
I50
sg4
I10
sg5
I10
sg6
I16
sg7
I35
sg8
g35
sg19
I5
sa(dp1344
g2
I50
sg3
I50
sg4
I10
sg5
I10
sg6
I58
sg7
I39
sg8
g39
sg19
I5
sa(dp1345
g2
I50
sg3
I50
sg4
I10
sg5
I10
sg6
I32
sg7
I44
sg8
g39
sg19
I5
sa(dp1346
g2
I50
sg3
I50
sg4
I10
sg5
I10
sg6
I58
sg7
I19
sg8
g118
sg19
I5
sa(dp1347
g2
I50
sg3
I50
sg4
I10
sg5
I10
sg6
I46
sg7
I31
sg8
g72
sg19
I5
sa(dp1348
g2
I50
sg3
I50
sg4
I10
sg5
I10
sg6
I49
sg7
I49
sg8
g203
sg19
I5
sa(dp1349
g2
I50
sg3
I50
sg4
I10
sg5
I10
sg6
I49
sg7
I37
sg8
g94
sg19
I5
sa(dp1350
g2
I50
sg3
I50
sg4
I10
sg5
I10
sg6
I37
sg7
I18
sg8
g68
sg19
I5
sa(dp1351
g2
I50
sg3
I50
sg4
I10
sg5
I10
sg6
I50
sg7
I25
sg8
g84
sg19
I5
sa(dp1352
g2
I50
sg3
I50
sg4
I10
sg5
I10
sg6
I22
sg7
I22
sg8
g27
sg19
I5
sa(dp1353
g2
I50
sg3
I50
sg4
I10
sg5
I10
sg6
I61
sg7
I23
sg8
g318
sg19
I5
sa(dp1354
g2
I50
sg3
I50
sg4
I10
sg5
I10
sg6
I35
sg7
I57
sg8
g60
sg19
I5
sa(dp1355
g2
I50
sg3
I50
sg4
I10
sg5
I10
sg6
I32
sg7
I21
sg8
g126
sg19
I5
sa(dp1356
g2
I50
sg3
I50
sg4
I10
sg5
I10
sg6
I42
sg7
I44
sg8
g98
sg19
I5
sa(dp1357
g2
I50
sg3
I50
sg4
I10
sg5
I10
sg6
I25
sg7
I28
sg8
g43
sg19
I5
sa(dp1358
g2
I50
sg3
I50
sg4
I10
sg5
I10
sg6
I30
sg7
I37
sg8
g145
sg19
I5
sa(dp1359
g2
I50
sg3
I50
sg4
I10
sg5
I10
sg6
I48
sg7
I50
sg8
g48
sg19
I5
sa(dp1360
g2
I50
sg3
I50
sg4
I10
sg5
I10
sg6
I28
sg7
I49
sg8
g43
sg19
I5
sa(dp1361
g2
I50
sg3
I50
sg4
I10
sg5
I10
sg6
I36
sg7
I15
sg8
g48
sg19
I5
sa(dp1362
g2
I50
sg3
I50
sg4
I10
sg5
I10
sg6
I17
sg7
I27
sg8
g318
sg19
I5
sa(dp1363
g2
I50
sg3
I50
sg4
I10
sg5
I10
sg6
I45
sg7
I32
sg8
g132
sg19
I5
sa(dp1364
g2
I50
sg3
I50
sg4
I10
sg5
I10
sg6
I38
sg7
I54
sg8
g27
sg19
I5
sa(dp1365
g2
I50
sg3
I50
sg4
I10
sg5
I10
sg6
I49
sg7
I48
sg8
g113
sg19
I5
sa(dp1366
g2
I50
sg3
I50
sg4
I10
sg5
I10
sg6
I15
sg7
I15
sg8
g108
sg19
I5
sa(dp1367
g2
I50
sg3
I50
sg4
I10
sg5
I10
sg6
I37
sg7
I16
sg8
g72
sg19
I5
sa(dp1368
g2
I50
sg3
I50
sg4
I10
sg5
I10
sg6
I38
sg7
I18
sg8
g27
sg19
I5
sa(dp1369
g2
I50
sg3
I50
sg4
I10
sg5
I10
sg6
I51
sg7
I43
sg8
g155
sg19
I5
sa(dp1370
g2
I50
sg3
I50
sg4
I10
sg5
I10
sg6
I33
sg7
I34
sg8
g136
sg19
I5
sa(dp1371
g2
I50
sg3
I50
sg4
I10
sg5
I10
sg6
I63
sg7
I45
sg8
g98
sg19
I5
sa(dp1372
g2
I50
sg3
I50
sg4
I10
sg5
I10
sg6
I54
sg7
I28
sg8
g164
sg19
I5
sa(dp1373
g2
I50
sg3
I50
sg4
I10
sg5
I10
sg6
I42
sg7
I44
sg8
g108
sg19
I5
sa(dp1374
g2
I50
sg3
I50
sg4
I10
sg5
I10
sg6
I56
sg7
I61
sg8
g145
sg19
I5
sa(dp1375
g2
I50
sg3
I50
sg4
I10
sg5
I10
sg6
I44
sg7
I40
sg8
g113
sg19
I5
sa(dp1376
g2
I50
sg3
I50
sg4
I10
sg5
I10
sg6
I59
sg7
I54
sg8
g31
sg19
I5
sa(dp1377
g2
I50
sg3
I50
sg4
I10
sg5
I10
sg6
I47
sg7
I18
sg8
g218
sg19
I5
sa(dp1378
g2
I50
sg3
I50
sg4
I10
sg5
I10
sg6
I40
sg7
I60
sg8
g76
sg19
I5
sa(dp1379
g2
I50
sg3
I50
sg4
I10
sg5
I10
sg6
I17
sg7
I63
sg8
g43
sg19
I5
sa(dp1380
g2
I50
sg3
I50
sg4
I10
sg5
I10
sg6
I36
sg7
I49
sg8
g23
sg19
I5
sa(dp1381
g2
I50
sg3
I50
sg4
I10
sg5
I10
sg6
I21
sg7
I33
sg8
g43
sg19
I5
sa(dp1382
g2
I50
sg3
I50
sg4
I10
sg5
I10
sg6
I50
sg7
I60
sg8
g76
sg19
I5
sa(dp1383
g2
I50
sg3
I50
sg4
I10
sg5
I10
sg6
I18
sg7
I15
sg8
g43
sg19
I5
sa(dp1384
g2
I50
sg3
I50
sg4
I10
sg5
I10
sg6
I54
sg7
I31
sg8
g31
sg19
I5
sa(dp1385
g2
I50
sg3
I50
sg4
I10
sg5
I10
sg6
I53
sg7
I30
sg8
g218
sg19
I5
sa(dp1386
g2
I50
sg3
I50
sg4
I10
sg5
I10
sg6
I45
sg7
I51
sg8
g35
sg19
I5
sa(dp1387
g2
I50
sg3
I50
sg4
I10
sg5
I10
sg6
I61
sg7
I17
sg8
g318
sg19
I5
sa(dp1388
g2
I50
sg3
I50
sg4
I10
sg5
I10
sg6
I49
sg7
I42
sg8
g126
sg19
I5
sa(dp1389
g2
I50
sg3
I50
sg4
I10
sg5
I10
sg6
I27
sg7
I43
sg8
g48
sg19
I5
sa(dp1390
g2
I50
sg3
I50
sg4
I10
sg5
I10
sg6
I24
sg7
I26
sg8
g126
sg19
I5
sa(dp1391
g2
I50
sg3
I50
sg4
I10
sg5
I10
sg6
I60
sg7
I46
sg8
g27
sg19
I5
sa(dp1392
g2
I50
sg3
I50
sg4
I10
sg5
I10
sg6
I24
sg7
I39
sg8
g160
sg19
I5
sa(dp1393
g2
I50
sg3
I50
sg4
I10
sg5
I10
sg6
I15
sg7
I43
sg8
g27
sg19
I5
sa(dp1394
g2
I50
sg3
I50
sg4
I10
sg5
I10
sg6
I64
sg7
I60
sg8
g43
sg19
I5
sa(dp1395
g2
I50
sg3
I50
sg4
I10
sg5
I10
sg6
I22
sg7
I25
sg8
g218
sg19
I5
sa(dp1396
g2
I50
sg3
I50
sg4
I10
sg5
I10
sg6
I39
sg7
I55
sg8
g168
sg19
I5
sa(dp1397
g2
I50
sg3
I50
sg4
I10
sg5
I10
sg6
I56
sg7
I55
sg8
g218
sg19
I5
sa(dp1398
g2
I50
sg3
I50
sg4
I10
sg5
I10
sg6
I44
sg7
I15
sg8
g60
sg19
I5
sa(dp1399
g2
I50
sg3
I50
sg4
I10
sg5
I10
sg6
I27
sg7
I59
sg8
g52
sg19
I5
sa(dp1400
g2
I50
sg3
I50
sg4
I10
sg5
I10
sg6
I30
sg7
I24
sg8
g136
sg19
I5
sa(dp1401
g2
I50
sg3
I50
sg4
I10
sg5
I10
sg6
I47
sg7
I25
sg8
g203
sg19
I5
sa(dp1402
g2
I50
sg3
I50
sg4
I10
sg5
I10
sg6
I37
sg7
I49
sg8
g23
sg19
I5
sa(dp1403
g2
I50
sg3
I50
sg4
I10
sg5
I10
sg6
I49
sg7
I54
sg8
g126
sg19
I5
sa(dp1404
g2
I50
sg3
I50
sg4
I10
sg5
I10
sg6
I21
sg7
I46
sg8
g39
sg19
I5
sa(dp1405
g2
I50
sg3
I50
sg4
I10
sg5
I10
sg6
I15
sg7
I34
sg8
g164
sg19
I5
sa(dp1406
g2
I50
sg3
I50
sg4
I10
sg5
I10
sg6
I17
sg7
I64
sg8
g52
sg19
I5
sa(dp1407
g2
I50
sg3
I50
sg4
I10
sg5
I10
sg6
I54
sg7
I58
sg8
g108
sg19
I5
sa(dp1408
g2
I50
sg3
I50
sg4
I10
sg5
I10
sg6
I62
sg7
I15
sg8
g68
sg19
I5
sa(dp1409
g2
I50
sg3
I50
sg4
I10
sg5
I10
sg6
I30
sg7
I34
sg8
g56
sg19
I5
sa(dp1410
g2
I50
sg3
I50
sg4
I10
sg5
I10
sg6
I31
sg7
I25
sg8
g208
sg19
I5
sa(dp1411
g2
I50
sg3
I50
sg4
I10
sg5
I10
sg6
I45
sg7
I26
sg8
g118
sg19
I5
sa(dp1412
g2
I50
sg3
I50
sg4
I10
sg5
I10
sg6
I60
sg7
I32
sg8
g68
sg19
I5
sa(dp1413
g2
I50
sg3
I50
sg4
I10
sg5
I10
sg6
I38
sg7
I56
sg8
g126
sg19
I5
sa(dp1414
g2
I50
sg3
I50
sg4
I10
sg5
I10
sg6
I41
sg7
I37
sg8
g39
sg19
I5
sa(dp1415
g2
I50
sg3
I50
sg4
I10
sg5
I10
sg6
I58
sg7
I40
sg8
g76
sg19
I5
sa(dp1416
g2
I50
sg3
I50
sg4
I10
sg5
I10
sg6
I30
sg7
I34
sg8
g39
sg19
I5
sa(dp1417
g2
I50
sg3
I50
sg4
I10
sg5
I10
sg6
I54
sg7
I61
sg8
g60
sg19
I5
sa(dp1418
g2
I50
sg3
I50
sg4
I10
sg5
I10
sg6
I24
sg7
I19
sg8
g132
sg19
I5
sa(dp1419
g2
I50
sg3
I50
sg4
I10
sg5
I10
sg6
I40
sg7
I35
sg8
g35
sg19
I5
sa(dp1420
g2
I50
sg3
I50
sg4
I10
sg5
I10
sg6
I64
sg7
I16
sg8
g60
sg19
I5
sa(dp1421
g2
I50
sg3
I50
sg4
I10
sg5
I10
sg6
I38
sg7
I42
sg8
g126
sg19
I5
sa(dp1422
g2
I50
sg3
I50
sg4
I10
sg5
I10
sg6
I59
sg7
I30
sg8
g179
sg19
I5
sa(dp1423
g2
I50
sg3
I50
sg4
I10
sg5
I10
sg6
I45
sg7
I43
sg8
g94
sg19
I5
sa(dp1424
g2
I50
sg3
I50
sg4
I10
sg5
I10
sg6
I22
sg7
I30
sg8
g68
sg19
I5
sa(dp1425
g2
I50
sg3
I50
sg4
I10
sg5
I10
sg6
I57
sg7
I32
sg8
g27
sg19
I5
sa(dp1426
g2
I50
sg3
I50
sg4
I10
sg5
I10
sg6
I45
sg7
I22
sg8
g179
sg19
I5
sa(dp1427
g2
I50
sg3
I50
sg4
I10
sg5
I10
sg6
I33
sg7
I32
sg8
g164
sg19
I5
sa(dp1428
g2
I50
sg3
I50
sg4
I10
sg5
I10
sg6
I47
sg7
I50
sg8
g168
sg19
I5
sa(dp1429
g2
I50
sg3
I50
sg4
I10
sg5
I10
sg6
I46
sg7
I29
sg8
g102
sg19
I5
sa(dp1430
g2
I50
sg3
I50
sg4
I10
sg5
I10
sg6
I54
sg7
I51
sg8
g68
sg19
I5
sa(dp1431
g2
I50
sg3
I50
sg4
I10
sg5
I10
sg6
I45
sg7
I35
sg8
g102
sg19
I5
sa(dp1432
g2
I50
sg3
I50
sg4
I10
sg5
I10
sg6
I22
sg7
I47
sg8
g94
sg19
I5
sa(dp1433
g2
I50
sg3
I50
sg4
I10
sg5
I10
sg6
I33
sg7
I28
sg8
g160
sg19
I5
sa(dp1434
g2
I50
sg3
I50
sg4
I10
sg5
I10
sg6
I61
sg7
I40
sg8
g102
sg19
I5
sa(dp1435
g2
I50
sg3
I50
sg4
I10
sg5
I10
sg6
I21
sg7
I49
sg8
g48
sg19
I5
sa(dp1436
g2
I50
sg3
I50
sg4
I10
sg5
I10
sg6
I57
sg7
I41
sg8
g18
sg19
I5
sa(dp1437
g2
I50
sg3
I50
sg4
I10
sg5
I10
sg6
I56
sg7
I37
sg8
g118
sg19
I5
sa(dp1438
g2
I50
sg3
I50
sg4
I10
sg5
I10
sg6
I63
sg7
I40
sg8
g102
sg19
I5
sa(dp1439
g2
I50
sg3
I50
sg4
I10
sg5
I10
sg6
I64
sg7
I35
sg8
g48
sg19
I5
sa(dp1440
g2
I50
sg3
I50
sg4
I10
sg5
I10
sg6
I49
sg7
I58
sg8
g218
sg19
I5
sa(dp1441
g2
I50
sg3
I50
sg4
I10
sg5
I10
sg6
I16
sg7
I38
sg8
g56
sg19
I5
sa(dp1442
g2
I50
sg3
I50
sg4
I10
sg5
I10
sg6
I45
sg7
I31
sg8
g84
sg19
I5
sa(dp1443
g2
I50
sg3
I50
sg4
I10
sg5
I10
sg6
I60
sg7
I49
sg8
g88
sg19
I5
sa(dp1444
g2
I50
sg3
I50
sg4
I10
sg5
I10
sg6
I58
sg7
I40
sg8
g118
sg19
I5
sa(dp1445
g2
I50
sg3
I50
sg4
I10
sg5
I10
sg6
I28
sg7
I17
sg8
g35
sg19
I5
sa(dp1446
g2
I50
sg3
I50
sg4
I10
sg5
I10
sg6
I44
sg7
I29
sg8
g208
sg19
I5
sa(dp1447
g2
I50
sg3
I50
sg4
I10
sg5
I10
sg6
I40
sg7
I38
sg8
g118
sg19
I5
sa(dp1448
g2
I50
sg3
I50
sg4
I10
sg5
I10
sg6
I18
sg7
I43
sg8
g52
sg19
I5
sa(dp1449
g2
I50
sg3
I50
sg4
I10
sg5
I10
sg6
I56
sg7
I20
sg8
g72
sg19
I5
sa(dp1450
g2
I50
sg3
I50
sg4
I10
sg5
I10
sg6
I48
sg7
I28
sg8
g203
sg19
I5
sa(dp1451
g2
I50
sg3
I50
sg4
I10
sg5
I10
sg6
I48
sg7
I30
sg8
g27
sg19
I5
sa(dp1452
g2
I50
sg3
I50
sg4
I10
sg5
I10
sg6
I59
sg7
I61
sg8
g145
sg19
I5
sa(dp1453
g2
I50
sg3
I50
sg4
I10
sg5
I10
sg6
I42
sg7
I40
sg8
g18
sg19
I5
sa(dp1454
g2
I50
sg3
I50
sg4
I10
sg5
I10
sg6
I52
sg7
I56
sg8
g76
sg19
I5
sa(dp1455
g2
I50
sg3
I50
sg4
I10
sg5
I10
sg6
I44
sg7
I39
sg8
g168
sg19
I5
sa(dp1456
g2
I50
sg3
I50
sg4
I10
sg5
I10
sg6
I62
sg7
I49
sg8
g224
sg19
I5
sa(dp1457
g2
I50
sg3
I50
sg4
I10
sg5
I10
sg6
I56
sg7
I32
sg8
g84
sg19
I5
sa(dp1458
g2
I50
sg3
I50
sg4
I10
sg5
I10
sg6
I22
sg7
I34
sg8
g23
sg19
I5
sa(dp1459
g2
I50
sg3
I50
sg4
I10
sg5
I10
sg6
I63
sg7
I36
sg8
g224
sg19
I5
sa(dp1460
g2
I50
sg3
I50
sg4
I10
sg5
I10
sg6
I17
sg7
I42
sg8
g76
sg19
I5
sa(dp1461
g2
I50
sg3
I50
sg4
I10
sg5
I10
sg6
I50
sg7
I60
sg8
g94
sg19
I5
sa(dp1462
g2
I50
sg3
I50
sg4
I10
sg5
I10
sg6
I33
sg7
I29
sg8
g203
sg19
I5
sa(dp1463
g2
I50
sg3
I50
sg4
I10
sg5
I10
sg6
I44
sg7
I37
sg8
g248
sg19
I5
sa(dp1464
g2
I50
sg3
I50
sg4
I10
sg5
I10
sg6
I46
sg7
I50
sg8
g98
sg19
I5
sa(dp1465
g2
I50
sg3
I50
sg4
I10
sg5
I10
sg6
I43
sg7
I45
sg8
g126
sg19
I5
sa(dp1466
g2
I50
sg3
I50
sg4
I10
sg5
I10
sg6
I40
sg7
I21
sg8
g60
sg19
I5
sa(dp1467
g2
I50
sg3
I50
sg4
I10
sg5
I10
sg6
I27
sg7
I45
sg8
g23
sg19
I5
sa(dp1468
g2
I50
sg3
I50
sg4
I10
sg5
I10
sg6
I35
sg7
I63
sg8
g168
sg19
I5
sa(dp1469
g2
I50
sg3
I50
sg4
I10
sg5
I10
sg6
I55
sg7
I38
sg8
g23
sg19
I5
sa(dp1470
g2
I50
sg3
I50
sg4
I10
sg5
I10
sg6
I47
sg7
I40
sg8
g132
sg19
I5
sa(dp1471
g2
I50
sg3
I50
sg4
I10
sg5
I10
sg6
I55
sg7
I31
sg8
g64
sg19
I5
sa(dp1472
g2
I50
sg3
I50
sg4
I10
sg5
I10
sg6
I47
sg7
I49
sg8
g64
sg19
I5
sa(dp1473
g2
I50
sg3
I50
sg4
I10
sg5
I10
sg6
I59
sg7
I28
sg8
g318
sg19
I5
sa(dp1474
g2
I50
sg3
I50
sg4
I10
sg5
I10
sg6
I21
sg7
I64
sg8
g164
sg19
I5
sa(dp1475
g2
I50
sg3
I50
sg4
I10
sg5
I10
sg6
I15
sg7
I16
sg8
g208
sg19
I5
sa(dp1476
g2
I50
sg3
I50
sg4
I10
sg5
I10
sg6
I19
sg7
I28
sg8
g132
sg19
I5
sa(dp1477
g2
I50
sg3
I50
sg4
I10
sg5
I10
sg6
I35
sg7
I25
sg8
g203
sg19
I5
sa(dp1478
g2
I50
sg3
I50
sg4
I10
sg5
I10
sg6
I48
sg7
I54
sg8
g164
sg19
I5
sa(dp1479
g2
I50
sg3
I50
sg4
I10
sg5
I10
sg6
I16
sg7
I41
sg8
g108
sg19
I5
sa(dp1480
g2
I50
sg3
I50
sg4
I10
sg5
I10
sg6
I48
sg7
I49
sg8
g126
sg19
I5
sa(dp1481
g2
I50
sg3
I50
sg4
I10
sg5
I10
sg6
I53
sg7
I17
sg8
g108
sg19
I5
sa(dp1482
g2
I50
sg3
I50
sg4
I10
sg5
I10
sg6
I36
sg7
I22
sg8
g72
sg19
I5
sa(dp1483
g2
I50
sg3
I50
sg4
I10
sg5
I10
sg6
I42
sg7
I30
sg8
g218
sg19
I5
sa(dp1484
g2
I50
sg3
I50
sg4
I10
sg5
I10
sg6
I49
sg7
I37
sg8
g145
sg19
I5
sa(dp1485
g2
I50
sg3
I50
sg4
I10
sg5
I10
sg6
I64
sg7
I29
sg8
g48
sg19
I5
sa(dp1486
g2
I50
sg3
I50
sg4
I10
sg5
I10
sg6
I59
sg7
I63
sg8
g68
sg19
I5
sa(dp1487
g2
I50
sg3
I50
sg4
I10
sg5
I10
sg6
I18
sg7
I46
sg8
g118
sg19
I5
sa(dp1488
g2
I50
sg3
I50
sg4
I10
sg5
I10
sg6
I40
sg7
I60
sg8
g145
sg19
I5
sa(dp1489
g2
I50
sg3
I50
sg4
I10
sg5
I10
sg6
I18
sg7
I29
sg8
g318
sg19
I5
sa(dp1490
g2
I50
sg3
I50
sg4
I10
sg5
I10
sg6
I44
sg7
I20
sg8
g39
sg19
I5
sa(dp1491
g2
I50
sg3
I50
sg4
I10
sg5
I10
sg6
I31
sg7
I26
sg8
g108
sg19
I5
sa(dp1492
g2
I50
sg3
I50
sg4
I10
sg5
I10
sg6
I59
sg7
I34
sg8
g160
sg19
I5
sa(dp1493
g2
I50
sg3
I50
sg4
I10
sg5
I10
sg6
I25
sg7
I59
sg8
g218
sg19
I5
sa(dp1494
g2
I50
sg3
I50
sg4
I10
sg5
I10
sg6
I41
sg7
I48
sg8
g318
sg19
I5
sa(dp1495
g2
I50
sg3
I50
sg4
I10
sg5
I10
sg6
I22
sg7
I52
sg8
g27
sg19
I5
sa(dp1496
g2
I50
sg3
I50
sg4
I10
sg5
I10
sg6
I39
sg7
I56
sg8
g98
sg19
I5
sa(dp1497
g2
I50
sg3
I50
sg4
I10
sg5
I10
sg6
I52
sg7
I45
sg8
g155
sg19
I5
sa(dp1498
g2
I50
sg3
I50
sg4
I10
sg5
I10
sg6
I30
sg7
I51
sg8
g108
sg19
I5
sa(dp1499
g2
I50
sg3
I50
sg4
I10
sg5
I10
sg6
I16
sg7
I26
sg8
g98
sg19
I5
sa(dp1500
g2
I50
sg3
I50
sg4
I10
sg5
I10
sg6
I57
sg7
I36
sg8
g132
sg19
I5
sa(dp1501
g2
I50
sg3
I50
sg4
I10
sg5
I10
sg6
I23
sg7
I30
sg8
g31
sg19
I5
sa(dp1502
g2
I50
sg3
I50
sg4
I10
sg5
I10
sg6
I33
sg7
I16
sg8
g60
sg19
I5
sa(dp1503
g2
I50
sg3
I50
sg4
I10
sg5
I10
sg6
I17
sg7
I18
sg8
g31
sg19
I5
sa(dp1504
g2
I50
sg3
I50
sg4
I10
sg5
I10
sg6
I56
sg7
I52
sg8
g155
sg19
I5
sa(dp1505
g2
I50
sg3
I50
sg4
I10
sg5
I10
sg6
I32
sg7
I53
sg8
g88
sg19
I5
sa(dp1506
g2
I50
sg3
I50
sg4
I10
sg5
I10
sg6
I63
sg7
I15
sg8
g48
sg19
I5
sa(dp1507
g2
I50
sg3
I50
sg4
I10
sg5
I10
sg6
I38
sg7
I55
sg8
g94
sg19
I5
sa(dp1508
g2
I50
sg3
I50
sg4
I10
sg5
I10
sg6
I56
sg7
I42
sg8
g179
sg19
I5
sa(dp1509
g2
I50
sg3
I50
sg4
I10
sg5
I10
sg6
I15
sg7
I20
sg8
g218
sg19
I5
sa(dp1510
g2
I50
sg3
I50
sg4
I10
sg5
I10
sg6
I38
sg7
I17
sg8
g43
sg19
I5
sa(dp1511
g2
I50
sg3
I50
sg4
I10
sg5
I10
sg6
I17
sg7
I27
sg8
g88
sg19
I5
sa(dp1512
g2
I50
sg3
I50
sg4
I10
sg5
I10
sg6
I52
sg7
I64
sg8
g113
sg19
I5
sa(dp1513
g2
I50
sg3
I50
sg4
I10
sg5
I10
sg6
I32
sg7
I27
sg8
g23
sg19
I5
sa(dp1514
g2
I50
sg3
I50
sg4
I10
sg5
I10
sg6
I51
sg7
I15
sg8
g108
sg19
I5
sa(dp1515
g2
I50
sg3
I50
sg4
I10
sg5
I10
sg6
I17
sg7
I47
sg8
g84
sg19
I5
sa(dp1516
g2
I50
sg3
I50
sg4
I10
sg5
I10
sg6
I39
sg7
I30
sg8
g48
sg19
I5
sa(dp1517
g2
I50
sg3
I50
sg4
I10
sg5
I10
sg6
I26
sg7
I54
sg8
g318
sg19
I5
sa(dp1518
g2
I50
sg3
I50
sg4
I10
sg5
I10
sg6
I64
sg7
I59
sg8
g203
sg19
I5
sa(dp1519
g2
I50
sg3
I50
sg4
I10
sg5
I10
sg6
I61
sg7
I52
sg8
g64
sg19
I5
sa(dp1520
g2
I50
sg3
I50
sg4
I10
sg5
I10
sg6
I47
sg7
I36
sg8
g98
sg19
I5
sa(dp1521
g2
I50
sg3
I50
sg4
I10
sg5
I10
sg6
I51
sg7
I43
sg8
g132
sg19
I5
sa(dp1522
g2
I50
sg3
I50
sg4
I10
sg5
I10
sg6
I28
sg7
I41
sg8
g145
sg19
I5
sa(dp1523
g2
I50
sg3
I50
sg4
I10
sg5
I10
sg6
I15
sg7
I45
sg8
g102
sg19
I5
sa(dp1524
g2
I50
sg3
I50
sg4
I10
sg5
I10
sg6
I46
sg7
I55
sg8
g136
sg19
I5
sa(dp1525
g2
I50
sg3
I50
sg4
I10
sg5
I10
sg6
I24
sg7
I31
sg8
g132
sg19
I5
sa(dp1526
g2
I50
sg3
I50
sg4
I10
sg5
I10
sg6
I36
sg7
I47
sg8
g203
sg19
I5
sa(dp1527
g2
I50
sg3
I50
sg4
I10
sg5
I10
sg6
I62
sg7
I52
sg8
g132
sg19
I5
sa(dp1528
g2
I50
sg3
I50
sg4
I10
sg5
I10
sg6
I34
sg7
I18
sg8
g160
sg19
I5
sa(dp1529
g2
I50
sg3
I50
sg4
I10
sg5
I10
sg6
I61
sg7
I16
sg8
g35
sg19
I5
sa(dp1530
g2
I50
sg3
I50
sg4
I10
sg5
I10
sg6
I32
sg7
I18
sg8
g27
sg19
I5
sa(dp1531
g2
I50
sg3
I50
sg4
I10
sg5
I10
sg6
I60
sg7
I54
sg8
g35
sg19
I5
sa(dp1532
g2
I50
sg3
I50
sg4
I10
sg5
I10
sg6
I47
sg7
I57
sg8
g64
sg19
I5
sa(dp1533
g2
I50
sg3
I50
sg4
I10
sg5
I10
sg6
I39
sg7
I39
sg8
g64
sg19
I5
sa(dp1534
g2
I50
sg3
I50
sg4
I10
sg5
I10
sg6
I40
sg7
I34
sg8
g136
sg19
I5
sa(dp1535
g2
I50
sg3
I50
sg4
I10
sg5
I10
sg6
I59
sg7
I58
sg8
g102
sg19
I5
sa(dp1536
g2
I50
sg3
I50
sg4
I10
sg5
I10
sg6
I41
sg7
I48
sg8
g72
sg19
I5
sa(dp1537
g2
I50
sg3
I50
sg4
I10
sg5
I10
sg6
I63
sg7
I62
sg8
g113
sg19
I5
sa(dp1538
g2
I50
sg3
I50
sg4
I10
sg5
I10
sg6
I50
sg7
I48
sg8
g155
sg19
I5
sa(dp1539
g2
I50
sg3
I50
sg4
I10
sg5
I10
sg6
I34
sg7
I34
sg8
g98
sg19
I5
sa(dp1540
g2
I50
sg3
I50
sg4
I10
sg5
I10
sg6
I43
sg7
I15
sg8
g155
sg19
I5
sa(dp1541
g2
I50
sg3
I50
sg4
I10
sg5
I10
sg6
I45
sg7
I19
sg8
g164
sg19
I5
sa(dp1542
g2
I50
sg3
I50
sg4
I10
sg5
I10
sg6
I46
sg7
I21
sg8
g35
sg19
I5
sa(dp1543
g2
I50
sg3
I50
sg4
I10
sg5
I10
sg6
I20
sg7
I44
sg8
g108
sg19
I5
sa(dp1544
g2
I50
sg3
I50
sg4
I10
sg5
I10
sg6
I19
sg7
I48
sg8
g43
sg19
I5
sa(dp1545
g2
I50
sg3
I50
sg4
I10
sg5
I10
sg6
I45
sg7
I29
sg8
g31
sg19
I5
sa(dp1546
g2
I50
sg3
I50
sg4
I10
sg5
I10
sg6
I53
sg7
I28
sg8
g48
sg19
I5
sa(dp1547
g2
I50
sg3
I50
sg4
I10
sg5
I10
sg6
I25
sg7
I20
sg8
g52
sg19
I5
sa(dp1548
g2
I50
sg3
I50
sg4
I10
sg5
I10
sg6
I49
sg7
I55
sg8
g164
sg19
I5
sa(dp1549
g2
I50
sg3
I50
sg4
I10
sg5
I10
sg6
I27
sg7
I45
sg8
g224
sg19
I5
sa(dp1550
g2
I50
sg3
I50
sg4
I10
sg5
I10
sg6
I59
sg7
I41
sg8
g60
sg19
I5
sa(dp1551
g2
I50
sg3
I50
sg4
I10
sg5
I10
sg6
I23
sg7
I63
sg8
g248
sg19
I5
sa(dp1552
g2
I50
sg3
I50
sg4
I10
sg5
I10
sg6
I19
sg7
I30
sg8
g84
sg19
I5
sa(dp1553
g2
I50
sg3
I50
sg4
I10
sg5
I10
sg6
I29
sg7
I27
sg8
g208
sg19
I5
sa(dp1554
g2
I50
sg3
I50
sg4
I10
sg5
I10
sg6
I24
sg7
I46
sg8
g98
sg19
I5
sa(dp1555
g2
I50
sg3
I50
sg4
I10
sg5
I10
sg6
I45
sg7
I61
sg8
g60
sg19
I5
sa(dp1556
g2
I50
sg3
I50
sg4
I10
sg5
I10
sg6
I24
sg7
I40
sg8
g203
sg19
I5
sa(dp1557
g2
I50
sg3
I50
sg4
I10
sg5
I10
sg6
I42
sg7
I53
sg8
g160
sg19
I5
sa(dp1558
g2
I50
sg3
I50
sg4
I10
sg5
I10
sg6
I54
sg7
I54
sg8
g318
sg19
I5
sa(dp1559
g2
I50
sg3
I50
sg4
I10
sg5
I10
sg6
I59
sg7
I30
sg8
g52
sg19
I5
sa(dp1560
g2
I50
sg3
I50
sg4
I10
sg5
I10
sg6
I58
sg7
I32
sg8
g118
sg19
I5
sa(dp1561
g2
I50
sg3
I50
sg4
I10
sg5
I10
sg6
I38
sg7
I28
sg8
g31
sg19
I5
sa(dp1562
g2
I50
sg3
I50
sg4
I10
sg5
I10
sg6
I22
sg7
I45
sg8
g43
sg19
I5
sa(dp1563
g2
I50
sg3
I50
sg4
I10
sg5
I10
sg6
I26
sg7
I33
sg8
g108
sg19
I5
sa(dp1564
g2
I50
sg3
I50
sg4
I10
sg5
I10
sg6
I48
sg7
I22
sg8
g155
sg19
I5
sa(dp1565
g2
I50
sg3
I50
sg4
I10
sg5
I10
sg6
I27
sg7
I41
sg8
g94
sg19
I5
sa(dp1566
g2
I50
sg3
I50
sg4
I10
sg5
I10
sg6
I34
sg7
I29
sg8
g168
sg19
I5
sa(dp1567
g2
I50
sg3
I50
sg4
I10
sg5
I10
sg6
I28
sg7
I41
sg8
g102
sg19
I5
sa(dp1568
g2
I50
sg3
I50
sg4
I10
sg5
I10
sg6
I57
sg7
I55
sg8
g102
sg19
I5
sa(dp1569
g2
I50
sg3
I50
sg4
I10
sg5
I10
sg6
I28
sg7
I18
sg8
g64
sg19
I5
sa(dp1570
g2
I50
sg3
I50
sg4
I10
sg5
I10
sg6
I58
sg7
I17
sg8
g31
sg19
I5
sa(dp1571
g2
I50
sg3
I50
sg4
I10
sg5
I10
sg6
I30
sg7
I32
sg8
g136
sg19
I5
sa(dp1572
g2
I50
sg3
I50
sg4
I10
sg5
I10
sg6
I26
sg7
I51
sg8
g56
sg19
I5
sa(dp1573
g2
I50
sg3
I50
sg4
I10
sg5
I10
sg6
I49
sg7
I63
sg8
g64
sg19
I5
sa(dp1574
g2
I50
sg3
I50
sg4
I10
sg5
I10
sg6
I27
sg7
I16
sg8
g168
sg19
I5
sa(dp1575
g2
I50
sg3
I50
sg4
I10
sg5
I10
sg6
I58
sg7
I30
sg8
g208
sg19
I5
sa(dp1576
g2
I50
sg3
I50
sg4
I10
sg5
I10
sg6
I15
sg7
I40
sg8
g94
sg19
I5
sa(dp1577
g2
I50
sg3
I50
sg4
I10
sg5
I10
sg6
I56
sg7
I39
sg8
g108
sg19
I5
sa(dp1578
g2
I50
sg3
I50
sg4
I10
sg5
I10
sg6
I23
sg7
I27
sg8
g18
sg19
I5
sa(dp1579
g2
I50
sg3
I50
sg4
I10
sg5
I10
sg6
I37
sg7
I21
sg8
g136
sg19
I5
sa(dp1580
g2
I50
sg3
I50
sg4
I10
sg5
I10
sg6
I18
sg7
I63
sg8
g72
sg19
I5
sa(dp1581
g2
I50
sg3
I50
sg4
I10
sg5
I10
sg6
I27
sg7
I28
sg8
g118
sg19
I5
sa(dp1582
g2
I50
sg3
I50
sg4
I10
sg5
I10
sg6
I41
sg7
I47
sg8
g248
sg19
I5
sa(dp1583
g2
I50
sg3
I50
sg4
I10
sg5
I10
sg6
I24
sg7
I37
sg8
g68
sg19
I5
sa(dp1584
g2
I50
sg3
I50
sg4
I10
sg5
I10
sg6
I32
sg7
I60
sg8
g35
sg19
I5
sa(dp1585
g2
I50
sg3
I50
sg4
I10
sg5
I10
sg6
I21
sg7
I25
sg8
g102
sg19
I5
sa(dp1586
g2
I50
sg3
I50
sg4
I10
sg5
I10
sg6
I21
sg7
I64
sg8
g318
sg19
I5
sa(dp1587
g2
I50
sg3
I50
sg4
I10
sg5
I10
sg6
I48
sg7
I57
sg8
g72
sg19
I5
sa(dp1588
g2
I50
sg3
I50
sg4
I10
sg5
I10
sg6
I35
sg7
I21
sg8
g113
sg19
I5
sa(dp1589
g2
I50
sg3
I50
sg4
I10
sg5
I10
sg6
I30
sg7
I48
sg8
g56
sg19
I5
sa(dp1590
g2
I50
sg3
I50
sg4
I10
sg5
I10
sg6
I54
sg7
I20
sg8
g248
sg19
I5
sa(dp1591
g2
I50
sg3
I50
sg4
I10
sg5
I10
sg6
I40
sg7
I52
sg8
g126
sg19
I5
sa(dp1592
g2
I50
sg3
I50
sg4
I10
sg5
I10
sg6
I42
sg7
I64
sg8
g145
sg19
I5
sa(dp1593
g2
I50
sg3
I50
sg4
I10
sg5
I10
sg6
I31
sg7
I49
sg8
g155
sg19
I5
sa(dp1594
g2
I50
sg3
I50
sg4
I10
sg5
I10
sg6
I39
sg7
I38
sg8
g118
sg19
I5
sa(dp1595
g2
I50
sg3
I50
sg4
I10
sg5
I10
sg6
I23
sg7
I50
sg8
g88
sg19
I5
sa(dp1596
g2
I50
sg3
I50
sg4
I10
sg5
I10
sg6
I43
sg7
I16
sg8
g160
sg19
I5
sa(dp1597
g2
I50
sg3
I50
sg4
I10
sg5
I10
sg6
I36
sg7
I52
sg8
g56
sg19
I5
sa(dp1598
g2
I50
sg3
I50
sg4
I10
sg5
I10
sg6
I26
sg7
I15
sg8
g52
sg19
I5
sa(dp1599
g2
I50
sg3
I50
sg4
I10
sg5
I10
sg6
I51
sg7
I40
sg8
g35
sg19
I5
sa(dp1600
g2
I50
sg3
I50
sg4
I10
sg5
I10
sg6
I37
sg7
I46
sg8
g68
sg19
I5
sa(dp1601
g2
I50
sg3
I50
sg4
I10
sg5
I10
sg6
I16
sg7
I18
sg8
g160
sg19
I5
sa(dp1602
g2
I50
sg3
I50
sg4
I10
sg5
I10
sg6
I30
sg7
I63
sg8
g218
sg19
I5
sa(dp1603
g2
I50
sg3
I50
sg4
I10
sg5
I10
sg6
I31
sg7
I39
sg8
g60
sg19
I5
sa(dp1604
g2
I50
sg3
I50
sg4
I10
sg5
I10
sg6
I56
sg7
I40
sg8
g108
sg19
I5
sa(dp1605
g2
I50
sg3
I50
sg4
I10
sg5
I10
sg6
I56
sg7
I22
sg8
g224
sg19
I5
sa(dp1606
g2
I50
sg3
I50
sg4
I10
sg5
I10
sg6
I41
sg7
I47
sg8
g179
sg19
I5
sa(dp1607
g2
I50
sg3
I50
sg4
I10
sg5
I10
sg6
I64
sg7
I18
sg8
g318
sg19
I5
sa(dp1608
g2
I50
sg3
I50
sg4
I10
sg5
I10
sg6
I21
sg7
I35
sg8
g60
sg19
I5
sa(dp1609
g2
I50
sg3
I50
sg4
I10
sg5
I10
sg6
I64
sg7
I50
sg8
g31
sg19
I5
sa(dp1610
g2
I50
sg3
I50
sg4
I10
sg5
I10
sg6
I59
sg7
I28
sg8
g35
sg19
I5
sa(dp1611
g2
I50
sg3
I50
sg4
I10
sg5
I10
sg6
I23
sg7
I63
sg8
g84
sg19
I5
sa(dp1612
g2
I50
sg3
I50
sg4
I10
sg5
I10
sg6
I51
sg7
I47
sg8
g179
sg19
I5
sa(dp1613
g2
I50
sg3
I50
sg4
I10
sg5
I10
sg6
I53
sg7
I44
sg8
g88
sg19
I5
sa(dp1614
g2
I50
sg3
I50
sg4
I10
sg5
I10
sg6
I27
sg7
I28
sg8
g208
sg19
I5
sa(dp1615
g2
I50
sg3
I50
sg4
I10
sg5
I10
sg6
I32
sg7
I64
sg8
g76
sg19
I5
sa(dp1616
g2
I50
sg3
I50
sg4
I10
sg5
I10
sg6
I20
sg7
I41
sg8
g60
sg19
I5
sa(dp1617
g2
I50
sg3
I50
sg4
I10
sg5
I10
sg6
I63
sg7
I35
sg8
g56
sg19
I5
sa(dp1618
g2
I50
sg3
I50
sg4
I10
sg5
I10
sg6
I15
sg7
I24
sg8
g60
sg19
I5
sa(dp1619
g2
I50
sg3
I50
sg4
I10
sg5
I10
sg6
I24
sg7
I19
sg8
g39
sg19
I5
sa(dp1620
g2
I50
sg3
I50
sg4
I10
sg5
I10
sg6
I57
sg7
I61
sg8
g108
sg19
I5
sa(dp1621
g2
I50
sg3
I50
sg4
I10
sg5
I10
sg6
I45
sg7
I35
sg8
g203
sg19
I5
sa(dp1622
g2
I50
sg3
I50
sg4
I10
sg5
I10
sg6
I24
sg7
I59
sg8
g118
sg19
I5
sa(dp1623
g2
I50
sg3
I50
sg4
I10
sg5
I10
sg6
I58
sg7
I45
sg8
g72
sg19
I5
sa(dp1624
g2
I50
sg3
I50
sg4
I10
sg5
I10
sg6
I40
sg7
I29
sg8
g164
sg19
I5
sa(dp1625
g2
I50
sg3
I50
sg4
I10
sg5
I10
sg6
I30
sg7
I56
sg8
g76
sg19
I5
sa(dp1626
g2
I50
sg3
I50
sg4
I10
sg5
I10
sg6
I60
sg7
I33
sg8
g208
sg19
I5
sa(dp1627
g2
I50
sg3
I50
sg4
I10
sg5
I10
sg6
I16
sg7
I28
sg8
g102
sg19
I5
sa(dp1628
g2
I50
sg3
I50
sg4
I10
sg5
I10
sg6
I43
sg7
I54
sg8
g218
sg19
I5
sa(dp1629
g2
I50
sg3
I50
sg4
I10
sg5
I10
sg6
I39
sg7
I27
sg8
g68
sg19
I5
sa(dp1630
g2
I50
sg3
I50
sg4
I10
sg5
I10
sg6
I19
sg7
I31
sg8
g132
sg19
I5
sa(dp1631
g2
I50
sg3
I50
sg4
I10
sg5
I10
sg6
I27
sg7
I27
sg8
g218
sg19
I5
sa(dp1632
g2
I50
sg3
I50
sg4
I10
sg5
I10
sg6
I44
sg7
I17
sg8
g132
sg19
I5
sa(dp1633
g2
I50
sg3
I50
sg4
I10
sg5
I10
sg6
I54
sg7
I38
sg8
g31
sg19
I5
sa(dp1634
g2
I50
sg3
I50
sg4
I10
sg5
I10
sg6
I37
sg7
I23
sg8
g108
sg19
I5
sa(dp1635
g2
I50
sg3
I50
sg4
I10
sg5
I10
sg6
I20
sg7
I25
sg8
g160
sg19
I5
sa(dp1636
g2
I50
sg3
I50
sg4
I10
sg5
I10
sg6
I54
sg7
I16
sg8
g179
sg19
I5
sa(dp1637
g2
I50
sg3
I50
sg4
I10
sg5
I10
sg6
I55
sg7
I18
sg8
g102
sg19
I5
sa(dp1638
g2
I50
sg3
I50
sg4
I10
sg5
I10
sg6
I39
sg7
I49
sg8
g48
sg19
I5
sa(dp1639
g2
I50
sg3
I50
sg4
I10
sg5
I10
sg6
I34
sg7
I48
sg8
g155
sg19
I5
sa(dp1640
g2
I50
sg3
I50
sg4
I10
sg5
I10
sg6
I62
sg7
I21
sg8
g203
sg19
I5
sa(dp1641
g2
I50
sg3
I50
sg4
I10
sg5
I10
sg6
I39
sg7
I55
sg8
g102
sg19
I5
sa(dp1642
g2
I50
sg3
I50
sg4
I10
sg5
I10
sg6
I39
sg7
I31
sg8
g179
sg19
I5
sa(dp1643
g2
I50
sg3
I50
sg4
I10
sg5
I10
sg6
I18
sg7
I25
sg8
g108
sg19
I5
sa(dp1644
g2
I50
sg3
I50
sg4
I10
sg5
I10
sg6
I39
sg7
I47
sg8
g208
sg19
I5
sa(dp1645
g2
I50
sg3
I50
sg4
I10
sg5
I10
sg6
I48
sg7
I44
sg8
g35
sg19
I5
sa(dp1646
g2
I50
sg3
I50
sg4
I10
sg5
I10
sg6
I59
sg7
I19
sg8
g31
sg19
I5
sa(dp1647
g2
I50
sg3
I50
sg4
I10
sg5
I10
sg6
I32
sg7
I42
sg8
g39
sg19
I5
sa(dp1648
g2
I50
sg3
I50
sg4
I10
sg5
I10
sg6
I64
sg7
I38
sg8
g132
sg19
I5
sa(dp1649
g2
I50
sg3
I50
sg4
I10
sg5
I10
sg6
I52
sg7
I61
sg8
g35
sg19
I5
sa(dp1650
g2
I50
sg3
I50
sg4
I10
sg5
I10
sg6
I20
sg7
I51
sg8
g136
sg19
I5
sa(dp1651
g2
I50
sg3
I50
sg4
I10
sg5
I10
sg6
I26
sg7
I18
sg8
g118
sg19
I5
sa(dp1652
g2
I50
sg3
I50
sg4
I10
sg5
I10
sg6
I15
sg7
I47
sg8
g94
sg19
I5
sa(dp1653
g2
I50
sg3
I50
sg4
I10
sg5
I10
sg6
I60
sg7
I64
sg8
g43
sg19
I5
sa(dp1654
g2
I50
sg3
I50
sg4
I10
sg5
I10
sg6
I22
sg7
I22
sg8
g72
sg19
I5
sa(dp1655
g2
I50
sg3
I50
sg4
I10
sg5
I10
sg6
I39
sg7
I42
sg8
g94
sg19
I5
sa(dp1656
g2
I50
sg3
I50
sg4
I10
sg5
I10
sg6
I33
sg7
I31
sg8
g72
sg19
I5
sa(dp1657
g2
I50
sg3
I50
sg4
I10
sg5
I10
sg6
I15
sg7
I30
sg8
g160
sg19
I5
sa(dp1658
g2
I50
sg3
I50
sg4
I10
sg5
I10
sg6
I15
sg7
I37
sg8
g72
sg19
I5
sa(dp1659
g2
I50
sg3
I50
sg4
I10
sg5
I10
sg6
I15
sg7
I45
sg8
g160
sg19
I5
sa(dp1660
g2
I50
sg3
I50
sg4
I10
sg5
I10
sg6
I36
sg7
I43
sg8
g84
sg19
I5
sa(dp1661
g2
I50
sg3
I50
sg4
I10
sg5
I10
sg6
I39
sg7
I54
sg8
g113
sg19
I5
sa(dp1662
g2
I50
sg3
I50
sg4
I10
sg5
I10
sg6
I36
sg7
I20
sg8
g56
sg19
I5
sa(dp1663
g2
I50
sg3
I50
sg4
I10
sg5
I10
sg6
I48
sg7
I19
sg8
g27
sg19
I5
sa(dp1664
g2
I50
sg3
I50
sg4
I10
sg5
I10
sg6
I57
sg7
I42
sg8
g145
sg19
I5
sa(dp1665
g2
I50
sg3
I50
sg4
I10
sg5
I10
sg6
I19
sg7
I34
sg8
g203
sg19
I5
sa(dp1666
g2
I50
sg3
I50
sg4
I10
sg5
I10
sg6
I59
sg7
I34
sg8
g248
sg19
I5
sa(dp1667
g2
I50
sg3
I50
sg4
I10
sg5
I10
sg6
I28
sg7
I55
sg8
g113
sg19
I5
sa(dp1668
g2
I50
sg3
I50
sg4
I10
sg5
I10
sg6
I47
sg7
I33
sg8
g72
sg19
I5
sa(dp1669
g2
I50
sg3
I50
sg4
I10
sg5
I10
sg6
I59
sg7
I44
sg8
g102
sg19
I5
sa(dp1670
g2
I50
sg3
I50
sg4
I10
sg5
I10
sg6
I42
sg7
I32
sg8
g52
sg19
I5
sa(dp1671
g2
I50
sg3
I50
sg4
I10
sg5
I10
sg6
I19
sg7
I20
sg8
g118
sg19
I5
sa(dp1672
g2
I50
sg3
I50
sg4
I10
sg5
I10
sg6
I33
sg7
I58
sg8
g52
sg19
I5
sa(dp1673
g2
I50
sg3
I50
sg4
I10
sg5
I10
sg6
I40
sg7
I19
sg8
g27
sg19
I5
sa(dp1674
g2
I50
sg3
I50
sg4
I10
sg5
I10
sg6
I53
sg7
I63
sg8
g160
sg19
I5
sa(dp1675
g2
I50
sg3
I50
sg4
I10
sg5
I10
sg6
I32
sg7
I39
sg8
g76
sg19
I5
sa(dp1676
g2
I50
sg3
I50
sg4
I10
sg5
I10
sg6
I24
sg7
I19
sg8
g224
sg19
I5
sa(dp1677
g2
I50
sg3
I50
sg4
I10
sg5
I10
sg6
I33
sg7
I39
sg8
g84
sg19
I5
sa(dp1678
g2
I50
sg3
I50
sg4
I10
sg5
I10
sg6
I42
sg7
I36
sg8
g52
sg19
I5
sa(dp1679
g2
I50
sg3
I50
sg4
I10
sg5
I10
sg6
I28
sg7
I19
sg8
g126
sg19
I5
sa(dp1680
g2
I50
sg3
I50
sg4
I10
sg5
I10
sg6
I29
sg7
I23
sg8
g76
sg19
I5
sa(dp1681
g2
I50
sg3
I50
sg4
I10
sg5
I10
sg6
I51
sg7
I56
sg8
g84
sg19
I5
sa(dp1682
g2
I50
sg3
I50
sg4
I10
sg5
I10
sg6
I60
sg7
I56
sg8
g23
sg19
I5
sa(dp1683
g2
I50
sg3
I50
sg4
I10
sg5
I10
sg6
I64
sg7
I49
sg8
g68
sg19
I5
sa(dp1684
g2
I50
sg3
I50
sg4
I10
sg5
I10
sg6
I33
sg7
I63
sg8
g64
sg19
I5
sa(dp1685
g2
I50
sg3
I50
sg4
I10
sg5
I10
sg6
I64
sg7
I51
sg8
g132
sg19
I5
sa(dp1686
g2
I50
sg3
I50
sg4
I10
sg5
I10
sg6
I17
sg7
I19
sg8
g179
sg19
I5
sa(dp1687
g2
I50
sg3
I50
sg4
I10
sg5
I10
sg6
I27
sg7
I25
sg8
g43
sg19
I5
sa(dp1688
g2
I50
sg3
I50
sg4
I10
sg5
I10
sg6
I59
sg7
I26
sg8
g98
sg19
I5
sa(dp1689
g2
I50
sg3
I50
sg4
I10
sg5
I10
sg6
I53
sg7
I34
sg8
g318
sg19
I5
sa(dp1690
g2
I50
sg3
I50
sg4
I10
sg5
I10
sg6
I25
sg7
I29
sg8
g145
sg19
I5
sa(dp1691
g2
I50
sg3
I50
sg4
I10
sg5
I10
sg6
I63
sg7
I60
sg8
g108
sg19
I5
sa(dp1692
g2
I50
sg3
I50
sg4
I10
sg5
I10
sg6
I48
sg7
I56
sg8
g132
sg19
I5
sa(dp1693
g2
I50
sg3
I50
sg4
I10
sg5
I10
sg6
I18
sg7
I33
sg8
g56
sg19
I5
sa(dp1694
g2
I50
sg3
I50
sg4
I10
sg5
I10
sg6
I41
sg7
I52
sg8
g68
sg19
I5
sa(dp1695
g2
I50
sg3
I50
sg4
I10
sg5
I10
sg6
I53
sg7
I25
sg8
g98
sg19
I5
sa(dp1696
g2
I50
sg3
I50
sg4
I10
sg5
I10
sg6
I45
sg7
I42
sg8
g60
sg19
I5
sa(dp1697
g2
I50
sg3
I50
sg4
I10
sg5
I10
sg6
I29
sg7
I58
sg8
g35
sg19
I5
sa(dp1698
g2
I50
sg3
I50
sg4
I10
sg5
I10
sg6
I51
sg7
I55
sg8
g64
sg19
I5
sa(dp1699
g2
I50
sg3
I50
sg4
I10
sg5
I10
sg6
I53
sg7
I60
sg8
g318
sg19
I5
sa(dp1700
g2
I50
sg3
I50
sg4
I10
sg5
I10
sg6
I56
sg7
I41
sg8
g64
sg19
I5
sa(dp1701
g2
I50
sg3
I50
sg4
I10
sg5
I10
sg6
I63
sg7
I41
sg8
g84
sg19
I5
sa(dp1702
g2
I50
sg3
I50
sg4
I10
sg5
I10
sg6
I55
sg7
I19
sg8
g98
sg19
I5
sa(dp1703
g2
I50
sg3
I50
sg4
I10
sg5
I10
sg6
I19
sg7
I34
sg8
g68
sg19
I5
sa(dp1704
g2
I50
sg3
I50
sg4
I10
sg5
I10
sg6
I30
sg7
I22
sg8
g224
sg19
I5
sa(dp1705
g2
I50
sg3
I50
sg4
I10
sg5
I10
sg6
I25
sg7
I47
sg8
g203
sg19
I5
sa(dp1706
g2
I50
sg3
I50
sg4
I10
sg5
I10
sg6
I50
sg7
I30
sg8
g39
sg19
I5
sa(dp1707
g2
I50
sg3
I50
sg4
I10
sg5
I10
sg6
I43
sg7
I63
sg8
g224
sg19
I5
sa(dp1708
g2
I50
sg3
I50
sg4
I10
sg5
I10
sg6
I38
sg7
I20
sg8
g203
sg19
I5
sa(dp1709
g2
I50
sg3
I50
sg4
I10
sg5
I10
sg6
I26
sg7
I30
sg8
g48
sg19
I5
sa(dp1710
g2
I50
sg3
I50
sg4
I10
sg5
I10
sg6
I56
sg7
I60
sg8
g145
sg19
I5
sa(dp1711
g2
I50
sg3
I50
sg4
I10
sg5
I10
sg6
I38
sg7
I29
sg8
g118
sg19
I5
sa(dp1712
g2
I50
sg3
I50
sg4
I10
sg5
I10
sg6
I39
sg7
I40
sg8
g164
sg19
I5
sa(dp1713
g2
I50
sg3
I50
sg4
I10
sg5
I10
sg6
I62
sg7
I37
sg8
g218
sg19
I5
sa(dp1714
g2
I50
sg3
I50
sg4
I10
sg5
I10
sg6
I38
sg7
I32
sg8
g208
sg19
I5
sa(dp1715
g2
I50
sg3
I50
sg4
I10
sg5
I10
sg6
I52
sg7
I24
sg8
g72
sg19
I5
sa(dp1716
g2
I50
sg3
I50
sg4
I10
sg5
I10
sg6
I33
sg7
I44
sg8
g84
sg19
I5
sa(dp1717
g2
I50
sg3
I50
sg4
I10
sg5
I10
sg6
I47
sg7
I34
sg8
g43
sg19
I5
sa(dp1718
g2
I50
sg3
I50
sg4
I10
sg5
I10
sg6
I33
sg7
I42
sg8
g39
sg19
I5
sa(dp1719
g2
I50
sg3
I50
sg4
I10
sg5
I10
sg6
I49
sg7
I42
sg8
g108
sg19
I5
sa(dp1720
g2
I50
sg3
I50
sg4
I10
sg5
I10
sg6
I21
sg7
I29
sg8
g56
sg19
I5
sa(dp1721
g2
I50
sg3
I50
sg4
I10
sg5
I10
sg6
I58
sg7
I35
sg8
g94
sg19
I5
sa(dp1722
g2
I50
sg3
I50
sg4
I10
sg5
I10
sg6
I41
sg7
I36
sg8
g224
sg19
I5
sa(dp1723
g2
I50
sg3
I50
sg4
I10
sg5
I10
sg6
I23
sg7
I63
sg8
g27
sg19
I5
sa(dp1724
g2
I50
sg3
I50
sg4
I10
sg5
I10
sg6
I26
sg7
I41
sg8
g145
sg19
I5
sa(dp1725
g2
I50
sg3
I50
sg4
I10
sg5
I10
sg6
I38
sg7
I59
sg8
g108
sg19
I5
sa(dp1726
g2
I50
sg3
I50
sg4
I10
sg5
I10
sg6
I40
sg7
I23
sg8
g160
sg19
I5
sa(dp1727
g2
I50
sg3
I50
sg4
I10
sg5
I10
sg6
I52
sg7
I37
sg8
g35
sg19
I5
sa(dp1728
g2
I50
sg3
I50
sg4
I10
sg5
I10
sg6
I49
sg7
I20
sg8
g160
sg19
I5
sa(dp1729
g2
I50
sg3
I50
sg4
I10
sg5
I10
sg6
I53
sg7
I35
sg8
g23
sg19
I5
sa(dp1730
g2
I50
sg3
I50
sg4
I10
sg5
I10
sg6
I42
sg7
I26
sg8
g160
sg19
I5
sa(dp1731
g2
I50
sg3
I50
sg4
I10
sg5
I10
sg6
I28
sg7
I56
sg8
g113
sg19
I5
sa(dp1732
g2
I50
sg3
I50
sg4
I10
sg5
I10
sg6
I22
sg7
I39
sg8
g31
sg19
I5
sa(dp1733
g2
I50
sg3
I50
sg4
I10
sg5
I10
sg6
I20
sg7
I63
sg8
g218
sg19
I5
sa(dp1734
g2
I50
sg3
I50
sg4
I10
sg5
I10
sg6
I64
sg7
I30
sg8
g88
sg19
I5
sa(dp1735
g2
I50
sg3
I50
sg4
I10
sg5
I10
sg6
I31
sg7
I38
sg8
g35
sg19
I5
sa(dp1736
g2
I50
sg3
I50
sg4
I10
sg5
I10
sg6
I24
sg7
I47
sg8
g35
sg19
I5
sa(dp1737
g2
I50
sg3
I50
sg4
I10
sg5
I10
sg6
I37
sg7
I48
sg8
g43
sg19
I5
sa(dp1738
g2
I50
sg3
I50
sg4
I10
sg5
I10
sg6
I39
sg7
I20
sg8
g126
sg19
I5
sa(dp1739
g2
I50
sg3
I50
sg4
I10
sg5
I10
sg6
I38
sg7
I59
sg8
g160
sg19
I5
sa(dp1740
g2
I50
sg3
I50
sg4
I10
sg5
I10
sg6
I16
sg7
I21
sg8
g136
sg19
I5
sa(dp1741
g2
I50
sg3
I50
sg4
I10
sg5
I10
sg6
I64
sg7
I54
sg8
g318
sg19
I5
sa(dp1742
g2
I50
sg3
I50
sg4
I10
sg5
I10
sg6
I43
sg7
I62
sg8
g88
sg19
I5
sa(dp1743
g2
I50
sg3
I50
sg4
I10
sg5
I10
sg6
I44
sg7
I21
sg8
g102
sg19
I5
sa(dp1744
g2
I50
sg3
I50
sg4
I10
sg5
I10
sg6
I34
sg7
I29
sg8
g39
sg19
I5
sa(dp1745
g2
I50
sg3
I50
sg4
I10
sg5
I10
sg6
I42
sg7
I61
sg8
g160
sg19
I5
sa(dp1746
g2
I50
sg3
I50
sg4
I10
sg5
I10
sg6
I32
sg7
I35
sg8
g203
sg19
I5
sa(dp1747
g2
I50
sg3
I50
sg4
I10
sg5
I10
sg6
I45
sg7
I28
sg8
g224
sg19
I5
sa(dp1748
g2
I50
sg3
I50
sg4
I10
sg5
I10
sg6
I59
sg7
I46
sg8
g94
sg19
I5
sa(dp1749
g2
I50
sg3
I50
sg4
I10
sg5
I10
sg6
I34
sg7
I25
sg8
g52
sg19
I5
sa(dp1750
g2
I50
sg3
I50
sg4
I10
sg5
I10
sg6
I15
sg7
I60
sg8
g248
sg19
I5
sa(dp1751
g2
I50
sg3
I50
sg4
I10
sg5
I10
sg6
I25
sg7
I42
sg8
g160
sg19
I5
sa(dp1752
g2
I50
sg3
I50
sg4
I10
sg5
I10
sg6
I17
sg7
I22
sg8
g27
sg19
I5
sa(dp1753
g2
I50
sg3
I50
sg4
I10
sg5
I10
sg6
I35
sg7
I34
sg8
g35
sg19
I5
sa(dp1754
g2
I50
sg3
I50
sg4
I10
sg5
I10
sg6
I20
sg7
I35
sg8
g23
sg19
I5
sa(dp1755
g2
I50
sg3
I50
sg4
I10
sg5
I10
sg6
I26
sg7
I26
sg8
g224
sg19
I5
sa(dp1756
g2
I50
sg3
I50
sg4
I10
sg5
I10
sg6
I51
sg7
I52
sg8
g113
sg19
I5
sa(dp1757
g2
I50
sg3
I50
sg4
I10
sg5
I10
sg6
I59
sg7
I41
sg8
g126
sg19
I5
sa(dp1758
g2
I50
sg3
I50
sg4
I10
sg5
I10
sg6
I58
sg7
I41
sg8
g23
sg19
I5
sa(dp1759
g2
I50
sg3
I50
sg4
I10
sg5
I10
sg6
I39
sg7
I28
sg8
g318
sg19
I5
sa(dp1760
g2
I50
sg3
I50
sg4
I10
sg5
I10
sg6
I53
sg7
I51
sg8
g102
sg19
I5
sa(dp1761
g2
I50
sg3
I50
sg4
I10
sg5
I10
sg6
I63
sg7
I49
sg8
g113
sg19
I5
sa(dp1762
g2
I50
sg3
I50
sg4
I10
sg5
I10
sg6
I51
sg7
I35
sg8
g113
sg19
I5
sa(dp1763
g2
I50
sg3
I50
sg4
I10
sg5
I10
sg6
I63
sg7
I26
sg8
g126
sg19
I5
sa(dp1764
g2
I50
sg3
I50
sg4
I10
sg5
I10
sg6
I20
sg7
I56
sg8
g102
sg19
I5
sa(dp1765
g2
I50
sg3
I50
sg4
I10
sg5
I10
sg6
I27
sg7
I30
sg8
g64
sg19
I5
sa(dp1766
g2
I50
sg3
I50
sg4
I10
sg5
I10
sg6
I15
sg7
I52
sg8
g31
sg19
I5
sa(dp1767
g2
I50
sg3
I50
sg4
I10
sg5
I10
sg6
I26
sg7
I20
sg8
g94
sg19
I5
sa(dp1768
g2
I50
sg3
I50
sg4
I10
sg5
I10
sg6
I18
sg7
I52
sg8
g160
sg19
I5
sa(dp1769
g2
I50
sg3
I50
sg4
I10
sg5
I10
sg6
I41
sg7
I25
sg8
g35
sg19
I5
sa(dp1770
g2
I50
sg3
I50
sg4
I10
sg5
I10
sg6
I41
sg7
I28
sg8
g23
sg19
I5
sa(dp1771
g2
I50
sg3
I50
sg4
I10
sg5
I10
sg6
I26
sg7
I55
sg8
g168
sg19
I5
sa(dp1772
g2
I50
sg3
I50
sg4
I10
sg5
I10
sg6
I60
sg7
I16
sg8
g248
sg19
I5
sa(dp1773
g2
I50
sg3
I50
sg4
I10
sg5
I10
sg6
I35
sg7
I26
sg8
g88
sg19
I5
sa(dp1774
g2
I50
sg3
I50
sg4
I10
sg5
I10
sg6
I21
sg7
I29
sg8
g102
sg19
I5
sa(dp1775
g2
I50
sg3
I50
sg4
I10
sg5
I10
sg6
I41
sg7
I50
sg8
g31
sg19
I5
sa(dp1776
g2
I50
sg3
I50
sg4
I10
sg5
I10
sg6
I46
sg7
I30
sg8
g35
sg19
I5
sa(dp1777
g2
I50
sg3
I50
sg4
I10
sg5
I10
sg6
I31
sg7
I60
sg8
g113
sg19
I5
sa(dp1778
g2
I50
sg3
I50
sg4
I10
sg5
I10
sg6
I53
sg7
I43
sg8
g126
sg19
I5
sa(dp1779
g2
I50
sg3
I50
sg4
I10
sg5
I10
sg6
I22
sg7
I18
sg8
g102
sg19
I5
sa(dp1780
g2
I50
sg3
I50
sg4
I10
sg5
I10
sg6
I16
sg7
I64
sg8
g118
sg19
I5
sa(dp1781
g2
I50
sg3
I50
sg4
I10
sg5
I10
sg6
I16
sg7
I44
sg8
g39
sg19
I5
sa(dp1782
g2
I50
sg3
I50
sg4
I10
sg5
I10
sg6
I20
sg7
I42
sg8
g113
sg19
I5
sa(dp1783
g2
I50
sg3
I50
sg4
I10
sg5
I10
sg6
I64
sg7
I49
sg8
g179
sg19
I5
sa(dp1784
g2
I50
sg3
I50
sg4
I10
sg5
I10
sg6
I17
sg7
I39
sg8
g160
sg19
I5
sa(dp1785
g2
I50
sg3
I50
sg4
I10
sg5
I10
sg6
I45
sg7
I38
sg8
g132
sg19
I5
sa(dp1786
g2
I50
sg3
I50
sg4
I10
sg5
I10
sg6
I23
sg7
I54
sg8
g84
sg19
I5
sa(dp1787
g2
I50
sg3
I50
sg4
I10
sg5
I10
sg6
I61
sg7
I53
sg8
g35
sg19
I5
sa(dp1788
g2
I50
sg3
I50
sg4
I10
sg5
I10
sg6
I38
sg7
I18
sg8
g88
sg19
I5
sa(dp1789
g2
I50
sg3
I50
sg4
I10
sg5
I10
sg6
I27
sg7
I45
sg8
g84
sg19
I5
sa(dp1790
g2
I50
sg3
I50
sg4
I10
sg5
I10
sg6
I50
sg7
I18
sg8
g68
sg19
I5
sa(dp1791
g2
I50
sg3
I50
sg4
I10
sg5
I10
sg6
I40
sg7
I32
sg8
g84
sg19
I5
sa(dp1792
g2
I50
sg3
I50
sg4
I10
sg5
I10
sg6
I46
sg7
I33
sg8
g39
sg19
I5
sa(dp1793
g2
I50
sg3
I50
sg4
I10
sg5
I10
sg6
I34
sg7
I59
sg8
g160
sg19
I5
sa(dp1794
g2
I50
sg3
I50
sg4
I10
sg5
I10
sg6
I16
sg7
I63
sg8
g35
sg19
I5
sa(dp1795
g2
I50
sg3
I50
sg4
I10
sg5
I10
sg6
I54
sg7
I51
sg8
g98
sg19
I5
sa(dp1796
g2
I50
sg3
I50
sg4
I10
sg5
I10
sg6
I55
sg7
I30
sg8
g113
sg19
I5
sa(dp1797
g2
I50
sg3
I50
sg4
I10
sg5
I10
sg6
I44
sg7
I64
sg8
g126
sg19
I5
sa(dp1798
g2
I50
sg3
I50
sg4
I10
sg5
I10
sg6
I40
sg7
I56
sg8
g318
sg19
I5
sa(dp1799
g2
I50
sg3
I50
sg4
I10
sg5
I10
sg6
I40
sg7
I27
sg8
g60
sg19
I5
sa(dp1800
g2
I50
sg3
I50
sg4
I10
sg5
I10
sg6
I20
sg7
I16
sg8
g43
sg19
I5
sa(dp1801
g2
I50
sg3
I50
sg4
I10
sg5
I10
sg6
I55
sg7
I57
sg8
g64
sg19
I5
sa(dp1802
g2
I50
sg3
I50
sg4
I10
sg5
I10
sg6
I43
sg7
I64
sg8
g318
sg19
I5
sa(dp1803
g2
I50
sg3
I50
sg4
I10
sg5
I10
sg6
I64
sg7
I23
sg8
g88
sg19
I5
sa(dp1804
g2
I50
sg3
I50
sg4
I10
sg5
I10
sg6
I35
sg7
I44
sg8
g179
sg19
I5
sa(dp1805
g2
I50
sg3
I50
sg4
I10
sg5
I10
sg6
I15
sg7
I44
sg8
g248
sg19
I5
sa(dp1806
g2
I50
sg3
I50
sg4
I10
sg5
I10
sg6
I22
sg7
I50
sg8
g94
sg19
I5
sa(dp1807
g2
I50
sg3
I50
sg4
I10
sg5
I10
sg6
I34
sg7
I23
sg8
g27
sg19
I5
sa(dp1808
g2
I50
sg3
I50
sg4
I10
sg5
I10
sg6
I43
sg7
I62
sg8
g23
sg19
I5
sa(dp1809
g2
I50
sg3
I50
sg4
I10
sg5
I10
sg6
I44
sg7
I18
sg8
g108
sg19
I5
sa(dp1810
g2
I50
sg3
I50
sg4
I10
sg5
I10
sg6
I63
sg7
I48
sg8
g68
sg19
I5
sa(dp1811
g2
I50
sg3
I50
sg4
I10
sg5
I10
sg6
I44
sg7
I25
sg8
g118
sg19
I5
sa(dp1812
g2
I50
sg3
I50
sg4
I10
sg5
I10
sg6
I26
sg7
I30
sg8
g118
sg19
I5
sa(dp1813
g2
I50
sg3
I50
sg4
I10
sg5
I10
sg6
I61
sg7
I63
sg8
g52
sg19
I5
sa(dp1814
g2
I50
sg3
I50
sg4
I10
sg5
I10
sg6
I48
sg7
I26
sg8
g31
sg19
I5
sa(dp1815
g2
I50
sg3
I50
sg4
I10
sg5
I10
sg6
I26
sg7
I29
sg8
g145
sg19
I5
sa(dp1816
g2
I50
sg3
I50
sg4
I10
sg5
I10
sg6
I28
sg7
I24
sg8
g76
sg19
I5
sa(dp1817
g2
I50
sg3
I50
sg4
I10
sg5
I10
sg6
I21
sg7
I55
sg8
g218
sg19
I5
sa(dp1818
g2
I50
sg3
I50
sg4
I10
sg5
I10
sg6
I46
sg7
I58
sg8
g18
sg19
I5
sa(dp1819
g2
I50
sg3
I50
sg4
I10
sg5
I10
sg6
I28
sg7
I26
sg8
g160
sg19
I5
sa(dp1820
g2
I50
sg3
I50
sg4
I10
sg5
I10
sg6
I63
sg7
I23
sg8
g39
sg19
I5
sa(dp1821
g2
I50
sg3
I50
sg4
I10
sg5
I10
sg6
I34
sg7
I15
sg8
g118
sg19
I5
sa(dp1822
g2
I50
sg3
I50
sg4
I10
sg5
I10
sg6
I54
sg7
I50
sg8
g208
sg19
I5
sa(dp1823
g2
I50
sg3
I50
sg4
I10
sg5
I10
sg6
I21
sg7
I15
sg8
g113
sg19
I5
sa(dp1824
g2
I50
sg3
I50
sg4
I10
sg5
I10
sg6
I53
sg7
I57
sg8
g318
sg19
I5
sa(dp1825
g2
I50
sg3
I50
sg4
I10
sg5
I10
sg6
I62
sg7
I34
sg8
g132
sg19
I5
sa(dp1826
g2
I50
sg3
I50
sg4
I10
sg5
I10
sg6
I56
sg7
I54
sg8
g56
sg19
I5
sa(dp1827
g2
I50
sg3
I50
sg4
I10
sg5
I10
sg6
I39
sg7
I37
sg8
g23
sg19
I5
sa(dp1828
g2
I50
sg3
I50
sg4
I10
sg5
I10
sg6
I32
sg7
I25
sg8
g136
sg19
I5
sa(dp1829
g2
I50
sg3
I50
sg4
I10
sg5
I10
sg6
I34
sg7
I39
sg8
g43
sg19
I5
sa(dp1830
g2
I50
sg3
I50
sg4
I10
sg5
I10
sg6
I22
sg7
I27
sg8
g64
sg19
I5
sa(dp1831
g2
I50
sg3
I50
sg4
I10
sg5
I10
sg6
I22
sg7
I49
sg8
g168
sg19
I5
sa(dp1832
g2
I50
sg3
I50
sg4
I10
sg5
I10
sg6
I45
sg7
I39
sg8
g224
sg19
I5
sa(dp1833
g2
I50
sg3
I50
sg4
I10
sg5
I10
sg6
I60
sg7
I53
sg8
g113
sg19
I5
sa(dp1834
g2
I50
sg3
I50
sg4
I10
sg5
I10
sg6
I17
sg7
I54
sg8
g18
sg19
I5
sa(dp1835
g2
I50
sg3
I50
sg4
I10
sg5
I10
sg6
I60
sg7
I39
sg8
g27
sg19
I5
sa(dp1836
g2
I50
sg3
I50
sg4
I10
sg5
I10
sg6
I63
sg7
I27
sg8
g203
sg19
I5
sa(dp1837
g2
I50
sg3
I50
sg4
I10
sg5
I10
sg6
I37
sg7
I43
sg8
g118
sg19
I5
sa(dp1838
g2
I50
sg3
I50
sg4
I10
sg5
I10
sg6
I48
sg7
I59
sg8
g64
sg19
I5
sa(dp1839
g2
I50
sg3
I50
sg4
I10
sg5
I10
sg6
I64
sg7
I33
sg8
g118
sg19
I5
sa(dp1840
g2
I50
sg3
I50
sg4
I10
sg5
I10
sg6
I15
sg7
I51
sg8
g118
sg19
I5
sa(dp1841
g2
I50
sg3
I50
sg4
I10
sg5
I10
sg6
I50
sg7
I49
sg8
g39
sg19
I5
sa(dp1842
g2
I50
sg3
I50
sg4
I10
sg5
I10
sg6
I50
sg7
I54
sg8
g48
sg19
I5
sa(dp1843
g2
I50
sg3
I50
sg4
I10
sg5
I10
sg6
I60
sg7
I15
sg8
g155
sg19
I5
sa(dp1844
g2
I50
sg3
I50
sg4
I10
sg5
I10
sg6
I28
sg7
I24
sg8
g145
sg19
I5
sa(dp1845
g2
I50
sg3
I50
sg4
I10
sg5
I10
sg6
I28
sg7
I49
sg8
g108
sg19
I5
sa(dp1846
g2
I50
sg3
I50
sg4
I10
sg5
I10
sg6
I58
sg7
I58
sg8
g39
sg19
I5
sa(dp1847
g2
I50
sg3
I50
sg4
I10
sg5
I10
sg6
I15
sg7
I21
sg8
g168
sg19
I5
sa(dp1848
g2
I50
sg3
I50
sg4
I10
sg5
I10
sg6
I54
sg7
I58
sg8
g132
sg19
I5
sa(dp1849
g2
I50
sg3
I50
sg4
I10
sg5
I10
sg6
I23
sg7
I34
sg8
g43
sg19
I5
sa(dp1850
g2
I50
sg3
I50
sg4
I10
sg5
I10
sg6
I53
sg7
I51
sg8
g318
sg19
I5
sa(dp1851
g2
I50
sg3
I50
sg4
I10
sg5
I10
sg6
I38
sg7
I26
sg8
g102
sg19
I5
sa(dp1852
g2
I50
sg3
I50
sg4
I10
sg5
I10
sg6
I56
sg7
I33
sg8
g31
sg19
I5
sa(dp1853
g2
I50
sg3
I50
sg4
I10
sg5
I10
sg6
I58
sg7
I48
sg8
g132
sg19
I5
sa(dp1854
g2
I50
sg3
I50
sg4
I10
sg5
I10
sg6
I26
sg7
I60
sg8
g68
sg19
I5
sa(dp1855
g2
I50
sg3
I50
sg4
I10
sg5
I10
sg6
I37
sg7
I45
sg8
g224
sg19
I5
sa(dp1856
g2
I50
sg3
I50
sg4
I10
sg5
I10
sg6
I56
sg7
I31
sg8
g48
sg19
I5
sa(dp1857
g2
I50
sg3
I50
sg4
I10
sg5
I10
sg6
I34
sg7
I22
sg8
g118
sg19
I5
sa(dp1858
g2
I50
sg3
I50
sg4
I10
sg5
I10
sg6
I52
sg7
I49
sg8
g84
sg19
I5
sa(dp1859
g2
I50
sg3
I50
sg4
I10
sg5
I10
sg6
I22
sg7
I34
sg8
g43
sg19
I5
sa(dp1860
g2
I50
sg3
I50
sg4
I10
sg5
I10
sg6
I38
sg7
I43
sg8
g102
sg19
I5
sa(dp1861
g2
I50
sg3
I50
sg4
I10
sg5
I10
sg6
I63
sg7
I38
sg8
g224
sg19
I5
sa(dp1862
g2
I50
sg3
I50
sg4
I10
sg5
I10
sg6
I59
sg7
I59
sg8
g68
sg19
I5
sa(dp1863
g2
I50
sg3
I50
sg4
I10
sg5
I10
sg6
I57
sg7
I53
sg8
g48
sg19
I5
sa(dp1864
g2
I50
sg3
I50
sg4
I10
sg5
I10
sg6
I36
sg7
I41
sg8
g145
sg19
I5
sa(dp1865
g2
I50
sg3
I50
sg4
I10
sg5
I10
sg6
I29
sg7
I63
sg8
g60
sg19
I5
sa(dp1866
g2
I50
sg3
I50
sg4
I10
sg5
I10
sg6
I58
sg7
I27
sg8
g248
sg19
I5
sa(dp1867
g2
I50
sg3
I50
sg4
I10
sg5
I10
sg6
I24
sg7
I21
sg8
g248
sg19
I5
sa(dp1868
g2
I50
sg3
I50
sg4
I10
sg5
I10
sg6
I26
sg7
I56
sg8
g136
sg19
I5
sa(dp1869
g2
I50
sg3
I50
sg4
I10
sg5
I10
sg6
I51
sg7
I23
sg8
g98
sg19
I5
sa(dp1870
g2
I50
sg3
I50
sg4
I10
sg5
I10
sg6
I39
sg7
I39
sg8
g31
sg19
I5
sa(dp1871
g2
I50
sg3
I50
sg4
I10
sg5
I10
sg6
I46
sg7
I60
sg8
g113
sg19
I5
sa(dp1872
g2
I50
sg3
I50
sg4
I10
sg5
I10
sg6
I20
sg7
I43
sg8
g68
sg19
I5
sa(dp1873
g2
I50
sg3
I50
sg4
I10
sg5
I10
sg6
I15
sg7
I23
sg8
g27
sg19
I5
sa(dp1874
g2
I50
sg3
I50
sg4
I10
sg5
I10
sg6
I55
sg7
I62
sg8
g113
sg19
I5
sa(dp1875
g2
I50
sg3
I50
sg4
I10
sg5
I10
sg6
I55
sg7
I50
sg8
g18
sg19
I5
sa(dp1876
g2
I50
sg3
I50
sg4
I10
sg5
I10
sg6
I42
sg7
I15
sg8
g179
sg19
I5
sa(dp1877
g2
I50
sg3
I50
sg4
I10
sg5
I10
sg6
I53
sg7
I30
sg8
g208
sg19
I5
sa(dp1878
g2
I50
sg3
I50
sg4
I10
sg5
I10
sg6
I25
sg7
I26
sg8
g164
sg19
I5
sa(dp1879
g2
I50
sg3
I50
sg4
I10
sg5
I10
sg6
I44
sg7
I25
sg8
g98
sg19
I5
sa(dp1880
g2
I50
sg3
I50
sg4
I10
sg5
I10
sg6
I48
sg7
I17
sg8
g164
sg19
I5
sa(dp1881
g2
I50
sg3
I50
sg4
I10
sg5
I10
sg6
I50
sg7
I31
sg8
g160
sg19
I5
sa(dp1882
g2
I50
sg3
I50
sg4
I10
sg5
I10
sg6
I21
sg7
I61
sg8
g118
sg19
I5
sa(dp1883
g2
I50
sg3
I50
sg4
I10
sg5
I10
sg6
I48
sg7
I28
sg8
g35
sg19
I5
sa(dp1884
g2
I50
sg3
I50
sg4
I10
sg5
I10
sg6
I32
sg7
I21
sg8
g72
sg19
I5
sa(dp1885
g2
I50
sg3
I50
sg4
I10
sg5
I10
sg6
I44
sg7
I16
sg8
g68
sg19
I5
sa(dp1886
g2
I50
sg3
I50
sg4
I10
sg5
I10
sg6
I22
sg7
I37
sg8
g102
sg19
I5
sa(dp1887
g2
I50
sg3
I50
sg4
I10
sg5
I10
sg6
I24
sg7
I24
sg8
g56
sg19
I5
sa(dp1888
g2
I50
sg3
I50
sg4
I10
sg5
I10
sg6
I36
sg7
I48
sg8
g64
sg19
I5
sa(dp1889
g2
I50
sg3
I50
sg4
I10
sg5
I10
sg6
I63
sg7
I47
sg8
g98
sg19
I5
sa(dp1890
g2
I50
sg3
I50
sg4
I10
sg5
I10
sg6
I55
sg7
I16
sg8
g145
sg19
I5
sa(dp1891
g2
I50
sg3
I50
sg4
I10
sg5
I10
sg6
I52
sg7
I36
sg8
g113
sg19
I5
sa(dp1892
g2
I50
sg3
I50
sg4
I10
sg5
I10
sg6
I64
sg7
I37
sg8
g60
sg19
I5
sa(dp1893
g2
I50
sg3
I50
sg4
I10
sg5
I10
sg6
I33
sg7
I30
sg8
g132
sg19
I5
sa(dp1894
g2
I50
sg3
I50
sg4
I10
sg5
I10
sg6
I58
sg7
I26
sg8
g27
sg19
I5
sa(dp1895
g2
I50
sg3
I50
sg4
I10
sg5
I10
sg6
I18
sg7
I25
sg8
g164
sg19
I5
sa(dp1896
g2
I50
sg3
I50
sg4
I10
sg5
I10
sg6
I31
sg7
I41
sg8
g132
sg19
I5
sa(dp1897
g2
I50
sg3
I50
sg4
I10
sg5
I10
sg6
I49
sg7
I62
sg8
g27
sg19
I5
sa(dp1898
g2
I50
sg3
I50
sg4
I10
sg5
I10
sg6
I54
sg7
I48
sg8
g88
sg19
I5
sa(dp1899
g2
I50
sg3
I50
sg4
I10
sg5
I10
sg6
I48
sg7
I25
sg8
g27
sg19
I5
sa(dp1900
g2
I50
sg3
I50
sg4
I10
sg5
I10
sg6
I36
sg7
I28
sg8
g168
sg19
I5
sa(dp1901
g2
I50
sg3
I50
sg4
I10
sg5
I10
sg6
I54
sg7
I22
sg8
g108
sg19
I5
sa(dp1902
g2
I50
sg3
I50
sg4
I10
sg5
I10
sg6
I35
sg7
I42
sg8
g84
sg19
I5
sa(dp1903
g2
I50
sg3
I50
sg4
I10
sg5
I10
sg6
I26
sg7
I15
sg8
g132
sg19
I5
sa(dp1904
g2
I50
sg3
I50
sg4
I10
sg5
I10
sg6
I27
sg7
I19
sg8
g94
sg19
I5
sa(dp1905
g2
I50
sg3
I50
sg4
I10
sg5
I10
sg6
I39
sg7
I32
sg8
g132
sg19
I5
sa(dp1906
g2
I50
sg3
I50
sg4
I10
sg5
I10
sg6
I48
sg7
I37
sg8
g76
sg19
I5
sa(dp1907
g2
I50
sg3
I50
sg4
I10
sg5
I10
sg6
I20
sg7
I35
sg8
g64
sg19
I5
sa(dp1908
g2
I50
sg3
I50
sg4
I10
sg5
I10
sg6
I29
sg7
I57
sg8
g102
sg19
I5
sa(dp1909
g2
I50
sg3
I50
sg4
I10
sg5
I10
sg6
I26
sg7
I25
sg8
g39
sg19
I5
sa(dp1910
g2
I50
sg3
I50
sg4
I10
sg5
I10
sg6
I51
sg7
I57
sg8
g23
sg19
I5
sa(dp1911
g2
I50
sg3
I50
sg4
I10
sg5
I10
sg6
I27
sg7
I47
sg8
g318
sg19
I5
sa(dp1912
g2
I50
sg3
I50
sg4
I10
sg5
I10
sg6
I46
sg7
I40
sg8
g31
sg19
I5
sa(dp1913
g2
I50
sg3
I50
sg4
I10
sg5
I10
sg6
I61
sg7
I29
sg8
g248
sg19
I5
sa(dp1914
g2
I50
sg3
I50
sg4
I10
sg5
I10
sg6
I42
sg7
I47
sg8
g35
sg19
I5
sa(dp1915
g2
I50
sg3
I50
sg4
I10
sg5
I10
sg6
I63
sg7
I62
sg8
g48
sg19
I5
sa(dp1916
g2
I50
sg3
I50
sg4
I10
sg5
I10
sg6
I59
sg7
I24
sg8
g88
sg19
I5
sa(dp1917
g2
I50
sg3
I50
sg4
I10
sg5
I10
sg6
I52
sg7
I36
sg8
g23
sg19
I5
sa(dp1918
g2
I50
sg3
I50
sg4
I10
sg5
I10
sg6
I52
sg7
I41
sg8
g35
sg19
I5
sa(dp1919
g2
I50
sg3
I50
sg4
I10
sg5
I10
sg6
I61
sg7
I56
sg8
g208
sg19
I5
sa(dp1920
g2
I50
sg3
I50
sg4
I10
sg5
I10
sg6
I48
sg7
I60
sg8
g52
sg19
I5
sa(dp1921
g2
I50
sg3
I50
sg4
I10
sg5
I10
sg6
I30
sg7
I52
sg8
g43
sg19
I5
sa(dp1922
g2
I50
sg3
I50
sg4
I10
sg5
I10
sg6
I46
sg7
I60
sg8
g56
sg19
I5
sa(dp1923
g2
I50
sg3
I50
sg4
I10
sg5
I10
sg6
I39
sg7
I39
sg8
g18
sg19
I5
sa(dp1924
g2
I50
sg3
I50
sg4
I10
sg5
I10
sg6
I58
sg7
I24
sg8
g18
sg19
I5
sa(dp1925
g2
I50
sg3
I50
sg4
I10
sg5
I10
sg6
I48
sg7
I34
sg8
g31
sg19
I5
sa(dp1926
g2
I50
sg3
I50
sg4
I10
sg5
I10
sg6
I19
sg7
I57
sg8
g56
sg19
I5
sa(dp1927
g2
I50
sg3
I50
sg4
I10
sg5
I10
sg6
I35
sg7
I21
sg8
g18
sg19
I5
sa(dp1928
g2
I50
sg3
I50
sg4
I10
sg5
I10
sg6
I21
sg7
I56
sg8
g126
sg19
I5
sa(dp1929
g2
I50
sg3
I50
sg4
I10
sg5
I10
sg6
I52
sg7
I21
sg8
g60
sg19
I5
sa(dp1930
g2
I50
sg3
I50
sg4
I10
sg5
I10
sg6
I40
sg7
I64
sg8
g48
sg19
I5
sa(dp1931
g2
I50
sg3
I50
sg4
I10
sg5
I10
sg6
I46
sg7
I39
sg8
g27
sg19
I5
sa(dp1932
g2
I50
sg3
I50
sg4
I10
sg5
I10
sg6
I37
sg7
I17
sg8
g168
sg19
I5
sa(dp1933
g2
I50
sg3
I50
sg4
I10
sg5
I10
sg6
I57
sg7
I36
sg8
g113
sg19
I5
sa(dp1934
g2
I50
sg3
I50
sg4
I10
sg5
I10
sg6
I31
sg7
I29
sg8
g118
sg19
I5
sa(dp1935
g2
I50
sg3
I50
sg4
I10
sg5
I10
sg6
I58
sg7
I56
sg8
g60
sg19
I5
sa(dp1936
g2
I50
sg3
I50
sg4
I10
sg5
I10
sg6
I64
sg7
I48
sg8
g39
sg19
I5
sa(dp1937
g2
I50
sg3
I50
sg4
I10
sg5
I10
sg6
I19
sg7
I41
sg8
g60
sg19
I5
sa(dp1938
g2
I50
sg3
I50
sg4
I10
sg5
I10
sg6
I42
sg7
I26
sg8
g39
sg19
I5
sa(dp1939
g2
I50
sg3
I50
sg4
I10
sg5
I10
sg6
I40
sg7
I50
sg8
g31
sg19
I5
sa(dp1940
g2
I50
sg3
I50
sg4
I10
sg5
I10
sg6
I17
sg7
I54
sg8
g72
sg19
I5
sa(dp1941
g2
I50
sg3
I50
sg4
I10
sg5
I10
sg6
I47
sg7
I38
sg8
g126
sg19
I5
sa(dp1942
g2
I50
sg3
I50
sg4
I10
sg5
I10
sg6
I26
sg7
I39
sg8
g72
sg19
I5
sa(dp1943
g2
I50
sg3
I50
sg4
I10
sg5
I10
sg6
I56
sg7
I38
sg8
g43
sg19
I5
sa(dp1944
g2
I50
sg3
I50
sg4
I10
sg5
I10
sg6
I16
sg7
I62
sg8
g318
sg19
I5
sa(dp1945
g2
I50
sg3
I50
sg4
I10
sg5
I10
sg6
I26
sg7
I49
sg8
g60
sg19
I5
sa(dp1946
g2
I50
sg3
I50
sg4
I10
sg5
I10
sg6
I21
sg7
I20
sg8
g113
sg19
I5
sa(dp1947
g2
I50
sg3
I50
sg4
I10
sg5
I10
sg6
I55
sg7
I62
sg8
g35
sg19
I5
sa(dp1948
g2
I50
sg3
I50
sg4
I10
sg5
I10
sg6
I56
sg7
I42
sg8
g218
sg19
I5
sa(dp1949
g2
I50
sg3
I50
sg4
I10
sg5
I10
sg6
I24
sg7
I22
sg8
g48
sg19
I5
sa(dp1950
g2
I50
sg3
I50
sg4
I10
sg5
I10
sg6
I34
sg7
I47
sg8
g48
sg19
I5
sa(dp1951
g2
I50
sg3
I50
sg4
I10
sg5
I10
sg6
I38
sg7
I60
sg8
g224
sg19
I5
sa(dp1952
g2
I50
sg3
I50
sg4
I10
sg5
I10
sg6
I24
sg7
I49
sg8
g72
sg19
I5
sa(dp1953
g2
I50
sg3
I50
sg4
I10
sg5
I10
sg6
I54
sg7
I51
sg8
g94
sg19
I5
sa(dp1954
g2
I50
sg3
I50
sg4
I10
sg5
I10
sg6
I31
sg7
I46
sg8
g118
sg19
I5
sa(dp1955
g2
I50
sg3
I50
sg4
I10
sg5
I10
sg6
I56
sg7
I24
sg8
g23
sg19
I5
sa(dp1956
g2
I50
sg3
I50
sg4
I10
sg5
I10
sg6
I29
sg7
I30
sg8
g136
sg19
I5
sa(dp1957
g2
I50
sg3
I50
sg4
I10
sg5
I10
sg6
I47
sg7
I44
sg8
g108
sg19
I5
sa(dp1958
g2
I50
sg3
I50
sg4
I10
sg5
I10
sg6
I57
sg7
I27
sg8
g94
sg19
I5
sa(dp1959
g2
I50
sg3
I50
sg4
I10
sg5
I10
sg6
I36
sg7
I58
sg8
g72
sg19
I5
sa(dp1960
g2
I50
sg3
I50
sg4
I10
sg5
I10
sg6
I15
sg7
I32
sg8
g318
sg19
I5
sa(dp1961
g2
I50
sg3
I50
sg4
I10
sg5
I10
sg6
I55
sg7
I40
sg8
g31
sg19
I5
sa(dp1962
g2
I50
sg3
I50
sg4
I10
sg5
I10
sg6
I36
sg7
I46
sg8
g208
sg19
I5
sa(dp1963
g2
I50
sg3
I50
sg4
I10
sg5
I10
sg6
I39
sg7
I53
sg8
g27
sg19
I5
sa(dp1964
g2
I50
sg3
I50
sg4
I10
sg5
I10
sg6
I46
sg7
I41
sg8
g72
sg19
I5
sa(dp1965
g2
I50
sg3
I50
sg4
I10
sg5
I10
sg6
I35
sg7
I21
sg8
g31
sg19
I5
sa(dp1966
g2
I50
sg3
I50
sg4
I10
sg5
I10
sg6
I41
sg7
I30
sg8
g108
sg19
I5
sa(dp1967
g2
I50
sg3
I50
sg4
I10
sg5
I10
sg6
I40
sg7
I37
sg8
g35
sg19
I5
sa(dp1968
g2
I50
sg3
I50
sg4
I10
sg5
I10
sg6
I37
sg7
I54
sg8
g136
sg19
I5
sa(dp1969
g2
I50
sg3
I50
sg4
I10
sg5
I10
sg6
I24
sg7
I36
sg8
g126
sg19
I5
sa(dp1970
g2
I50
sg3
I50
sg4
I10
sg5
I10
sg6
I48
sg7
I17
sg8
g248
sg19
I5
sa(dp1971
g2
I50
sg3
I50
sg4
I10
sg5
I10
sg6
I56
sg7
I62
sg8
g318
sg19
I5
sa(dp1972
g2
I50
sg3
I50
sg4
I10
sg5
I10
sg6
I53
sg7
I32
sg8
g126
sg19
I5
sa(dp1973
g2
I50
sg3
I50
sg4
I10
sg5
I10
sg6
I40
sg7
I64
sg8
g118
sg19
I5
sa(dp1974
g2
I50
sg3
I50
sg4
I10
sg5
I10
sg6
I52
sg7
I61
sg8
g98
sg19
I5
sa(dp1975
g2
I50
sg3
I50
sg4
I10
sg5
I10
sg6
I62
sg7
I29
sg8
g126
sg19
I5
sa(dp1976
g2
I50
sg3
I50
sg4
I10
sg5
I10
sg6
I57
sg7
I57
sg8
g164
sg19
I5
sa(dp1977
g2
I50
sg3
I50
sg4
I10
sg5
I10
sg6
I20
sg7
I50
sg8
g84
sg19
I5
sa(dp1978
g2
I50
sg3
I50
sg4
I10
sg5
I10
sg6
I56
sg7
I17
sg8
g203
sg19
I5
sa(dp1979
g2
I50
sg3
I50
sg4
I10
sg5
I10
sg6
I58
sg7
I35
sg8
g76
sg19
I5
sa(dp1980
g2
I50
sg3
I50
sg4
I10
sg5
I10
sg6
I17
sg7
I39
sg8
g76
sg19
I5
sa(dp1981
g2
I50
sg3
I50
sg4
I10
sg5
I10
sg6
I28
sg7
I43
sg8
g248
sg19
I5
sa(dp1982
g2
I50
sg3
I50
sg4
I10
sg5
I10
sg6
I49
sg7
I63
sg8
g218
sg19
I5
sa(dp1983
g2
I50
sg3
I50
sg4
I10
sg5
I10
sg6
I39
sg7
I41
sg8
g72
sg19
I5
sa(dp1984
g2
I50
sg3
I50
sg4
I10
sg5
I10
sg6
I53
sg7
I43
sg8
g145
sg19
I5
sa(dp1985
g2
I50
sg3
I50
sg4
I10
sg5
I10
sg6
I53
sg7
I15
sg8
g72
sg19
I5
sa(dp1986
g2
I50
sg3
I50
sg4
I10
sg5
I10
sg6
I44
sg7
I18
sg8
g88
sg19
I5
sa(dp1987
g2
I50
sg3
I50
sg4
I10
sg5
I10
sg6
I18
sg7
I52
sg8
g203
sg19
I5
sa(dp1988
g2
I50
sg3
I50
sg4
I10
sg5
I10
sg6
I48
sg7
I28
sg8
g48
sg19
I5
sa(dp1989
g2
I50
sg3
I50
sg4
I10
sg5
I10
sg6
I33
sg7
I32
sg8
g60
sg19
I5
sa(dp1990
g2
I50
sg3
I50
sg4
I10
sg5
I10
sg6
I53
sg7
I58
sg8
g145
sg19
I5
sa(dp1991
g2
I50
sg3
I50
sg4
I10
sg5
I10
sg6
I34
sg7
I36
sg8
g68
sg19
I5
sa(dp1992
g2
I50
sg3
I50
sg4
I10
sg5
I10
sg6
I45
sg7
I43
sg8
g18
sg19
I5
sa(dp1993
g2
I50
sg3
I50
sg4
I10
sg5
I10
sg6
I48
sg7
I27
sg8
g48
sg19
I5
sa(dp1994
g2
I50
sg3
I50
sg4
I10
sg5
I10
sg6
I60
sg7
I41
sg8
g88
sg19
I5
sa(dp1995
g2
I50
sg3
I50
sg4
I10
sg5
I10
sg6
I30
sg7
I61
sg8
g68
sg19
I5
sa(dp1996
g2
I50
sg3
I50
sg4
I10
sg5
I10
sg6
I43
sg7
I51
sg8
g43
sg19
I5
sa(dp1997
g2
I50
sg3
I50
sg4
I10
sg5
I10
sg6
I36
sg7
I23
sg8
g72
sg19
I5
sa(dp1998
g2
I50
sg3
I50
sg4
I10
sg5
I10
sg6
I43
sg7
I25
sg8
g179
sg19
I5
sa(dp1999
g2
I50
sg3
I50
sg4
I10
sg5
I10
sg6
I25
sg7
I50
sg8
g72
sg19
I5
sa(dp2000
g2
I50
sg3
I50
sg4
I10
sg5
I10
sg6
I63
sg7
I63
sg8
g118
sg19
I5
sa(dp2001
g2
I50
sg3
I50
sg4
I10
sg5
I10
sg6
I51
sg7
I56
sg8
g43
sg19
I5
sa(dp2002
g2
I50
sg3
I50
sg4
I10
sg5
I10
sg6
I60
sg7
I25
sg8
g113
sg19
I5
sa(dp2003
g2
I50
sg3
I50
sg4
I10
sg5
I10
sg6
I58
sg7
I53
sg8
g31
sg19
I5
sa(dp2004
g2
I50
sg3
I50
sg4
I10
sg5
I10
sg6
I62
sg7
I40
sg8
g35
sg19
I5
sa(dp2005
g2
I50
sg3
I50
sg4
I10
sg5
I10
sg6
I21
sg7
I17
sg8
g224
sg19
I5
sa(dp2006
g2
I50
sg3
I50
sg4
I10
sg5
I10
sg6
I30
sg7
I22
sg8
g43
sg19
I5
sa(dp2007
g2
I50
sg3
I50
sg4
I10
sg5
I10
sg6
I17
sg7
I34
sg8
g76
sg19
I5
sa(dp2008
g2
I50
sg3
I50
sg4
I10
sg5
I10
sg6
I57
sg7
I43
sg8
g113
sg19
I5
sa(dp2009
g2
I50
sg3
I50
sg4
I10
sg5
I10
sg6
I15
sg7
I29
sg8
g23
sg19
I5
sa(dp2010
g2
I50
sg3
I50
sg4
I10
sg5
I10
sg6
I47
sg7
I36
sg8
g94
sg19
I5
sa(dp2011
g2
I50
sg3
I50
sg4
I10
sg5
I10
sg6
I18
sg7
I61
sg8
g248
sg19
I5
sa(dp2012
g2
I50
sg3
I50
sg4
I10
sg5
I10
sg6
I26
sg7
I33
sg8
g168
sg19
I5
sa(dp2013
g2
I50
sg3
I50
sg4
I10
sg5
I10
sg6
I57
sg7
I48
sg8
g118
sg19
I5
sa(dp2014
g2
I50
sg3
I50
sg4
I10
sg5
I10
sg6
I64
sg7
I55
sg8
g88
sg19
I5
sa(dp2015
g2
I50
sg3
I50
sg4
I10
sg5
I10
sg6
I49
sg7
I33
sg8
g68
sg19
I5
sa(dp2016
g2
I50
sg3
I50
sg4
I10
sg5
I10
sg6
I26
sg7
I63
sg8
g168
sg19
I5
sa(dp2017
g2
I50
sg3
I50
sg4
I10
sg5
I10
sg6
I36
sg7
I30
sg8
g72
sg19
I5
sa(dp2018
g2
I50
sg3
I50
sg4
I10
sg5
I10
sg6
I17
sg7
I24
sg8
g155
sg19
I5
sa(dp2019
g2
I50
sg3
I50
sg4
I10
sg5
I10
sg6
I45
sg7
I55
sg8
g145
sg19
I5
sa(dp2020
g2
I50
sg3
I50
sg4
I10
sg5
I10
sg6
I27
sg7
I32
sg8
g118
sg19
I5
sa(dp2021
g2
I50
sg3
I50
sg4
I10
sg5
I10
sg6
I28
sg7
I19
sg8
g48
sg19
I5
sa(dp2022
g2
I50
sg3
I50
sg4
I10
sg5
I10
sg6
I46
sg7
I23
sg8
g76
sg19
I5
sa(dp2023
g2
I50
sg3
I50
sg4
I10
sg5
I10
sg6
I46
sg7
I40
sg8
g52
sg19
I5
sa(dp2024
g2
I50
sg3
I50
sg4
I10
sg5
I10
sg6
I23
sg7
I37
sg8
g60
sg19
I5
sa(dp2025
g2
I50
sg3
I50
sg4
I10
sg5
I10
sg6
I35
sg7
I40
sg8
g224
sg19
I5
sa(dp2026
g2
I50
sg3
I50
sg4
I10
sg5
I10
sg6
I22
sg7
I31
sg8
g39
sg19
I5
sa(dp2027
g2
I50
sg3
I50
sg4
I10
sg5
I10
sg6
I63
sg7
I21
sg8
g60
sg19
I5
sa(dp2028
g2
I50
sg3
I50
sg4
I10
sg5
I10
sg6
I31
sg7
I46
sg8
g164
sg19
I5
sa(dp2029
g2
I50
sg3
I50
sg4
I10
sg5
I10
sg6
I22
sg7
I45
sg8
g136
sg19
I5
sa(dp2030
g2
I50
sg3
I50
sg4
I10
sg5
I10
sg6
I38
sg7
I49
sg8
g60
sg19
I5
sa(dp2031
g2
I50
sg3
I50
sg4
I10
sg5
I10
sg6
I30
sg7
I61
sg8
g94
sg19
I5
sa(dp2032
g2
I50
sg3
I50
sg4
I10
sg5
I10
sg6
I52
sg7
I46
sg8
g35
sg19
I5
sa(dp2033
g2
I50
sg3
I50
sg4
I10
sg5
I10
sg6
I60
sg7
I31
sg8
g102
sg19
I5
sa(dp2034
g2
I50
sg3
I50
sg4
I10
sg5
I10
sg6
I23
sg7
I30
sg8
g48
sg19
I5
sa(dp2035
g2
I50
sg3
I50
sg4
I10
sg5
I10
sg6
I52
sg7
I15
sg8
g56
sg19
I5
sa(dp2036
g2
I50
sg3
I50
sg4
I10
sg5
I10
sg6
I18
sg7
I23
sg8
g72
sg19
I5
sa(dp2037
g2
I50
sg3
I50
sg4
I10
sg5
I10
sg6
I46
sg7
I55
sg8
g39
sg19
I5
sa(dp2038
g2
I50
sg3
I50
sg4
I10
sg5
I10
sg6
I45
sg7
I50
sg8
g18
sg19
I5
sa(dp2039
g2
I50
sg3
I50
sg4
I10
sg5
I10
sg6
I56
sg7
I29
sg8
g136
sg19
I5
sa(dp2040
g2
I50
sg3
I50
sg4
I10
sg5
I10
sg6
I43
sg7
I38
sg8
g218
sg19
I5
sa(dp2041
g2
I50
sg3
I50
sg4
I10
sg5
I10
sg6
I60
sg7
I20
sg8
g39
sg19
I5
sa(dp2042
g2
I50
sg3
I50
sg4
I10
sg5
I10
sg6
I23
sg7
I27
sg8
g72
sg19
I5
sa(dp2043
g2
I50
sg3
I50
sg4
I10
sg5
I10
sg6
I45
sg7
I54
sg8
g98
sg19
I5
sa(dp2044
g2
I50
sg3
I50
sg4
I10
sg5
I10
sg6
I28
sg7
I39
sg8
g52
sg19
I5
sa(dp2045
g2
I50
sg3
I50
sg4
I10
sg5
I10
sg6
I44
sg7
I50
sg8
g64
sg19
I5
sa(dp2046
g2
I50
sg3
I50
sg4
I10
sg5
I10
sg6
I45
sg7
I59
sg8
g218
sg19
I5
sa(dp2047
g2
I50
sg3
I50
sg4
I10
sg5
I10
sg6
I64
sg7
I56
sg8
g132
sg19
I5
sa(dp2048
g2
I50
sg3
I50
sg4
I10
sg5
I10
sg6
I21
sg7
I53
sg8
g43
sg19
I5
sa(dp2049
g2
I50
sg3
I50
sg4
I10
sg5
I10
sg6
I21
sg7
I57
sg8
g224
sg19
I5
sa(dp2050
g2
I50
sg3
I50
sg4
I10
sg5
I10
sg6
I50
sg7
I38
sg8
g98
sg19
I5
sa(dp2051
g2
I50
sg3
I50
sg4
I10
sg5
I10
sg6
I62
sg7
I22
sg8
g102
sg19
I5
sa(dp2052
g2
I50
sg3
I50
sg4
I10
sg5
I10
sg6
I27
sg7
I43
sg8
g108
sg19
I5
sa(dp2053
g2
I50
sg3
I50
sg4
I10
sg5
I10
sg6
I23
sg7
I26
sg8
g43
sg19
I5
sa(dp2054
g2
I50
sg3
I50
sg4
I10
sg5
I10
sg6
I36
sg7
I25
sg8
g56
sg19
I5
sa(dp2055
g2
I50
sg3
I50
sg4
I10
sg5
I10
sg6
I17
sg7
I29
sg8
g48
sg19
I5
sa(dp2056
g2
I50
sg3
I50
sg4
I10
sg5
I10
sg6
I16
sg7
I40
sg8
g39
sg19
I5
sa(dp2057
g2
I50
sg3
I50
sg4
I10
sg5
I10
sg6
I22
sg7
I17
sg8
g23
sg19
I5
sa(dp2058
g2
I50
sg3
I50
sg4
I10
sg5
I10
sg6
I47
sg7
I36
sg8
g39
sg19
I5
sa(dp2059
g2
I50
sg3
I50
sg4
I10
sg5
I10
sg6
I61
sg7
I55
sg8
g203
sg19
I5
sa(dp2060
g2
I50
sg3
I50
sg4
I10
sg5
I10
sg6
I40
sg7
I53
sg8
g48
sg19
I5
sa(dp2061
g2
I50
sg3
I50
sg4
I10
sg5
I10
sg6
I47
sg7
I36
sg8
g102
sg19
I5
sa(dp2062
g2
I50
sg3
I50
sg4
I10
sg5
I10
sg6
I59
sg7
I54
sg8
g108
sg19
I5
sa(dp2063
g2
I50
sg3
I50
sg4
I10
sg5
I10
sg6
I56
sg7
I36
sg8
g35
sg19
I5
sa(dp2064
g2
I50
sg3
I50
sg4
I10
sg5
I10
sg6
I29
sg7
I41
sg8
g218
sg19
I5
sa(dp2065
g2
I50
sg3
I50
sg4
I10
sg5
I10
sg6
I42
sg7
I52
sg8
g56
sg19
I5
sa(dp2066
g2
I50
sg3
I50
sg4
I10
sg5
I10
sg6
I42
sg7
I42
sg8
g208
sg19
I5
sa(dp2067
g2
I50
sg3
I50
sg4
I10
sg5
I10
sg6
I58
sg7
I15
sg8
g64
sg19
I5
sa(dp2068
g2
I50
sg3
I50
sg4
I10
sg5
I10
sg6
I25
sg7
I59
sg8
g160
sg19
I5
sa(dp2069
g2
I50
sg3
I50
sg4
I10
sg5
I10
sg6
I34
sg7
I24
sg8
g60
sg19
I5
sa(dp2070
g2
I50
sg3
I50
sg4
I10
sg5
I10
sg6
I21
sg7
I42
sg8
g132
sg19
I5
sa(dp2071
g2
I50
sg3
I50
sg4
I10
sg5
I10
sg6
I19
sg7
I52
sg8
g88
sg19
I5
sa(dp2072
g2
I50
sg3
I50
sg4
I10
sg5
I10
sg6
I26
sg7
I33
sg8
g52
sg19
I5
sa(dp2073
g2
I50
sg3
I50
sg4
I10
sg5
I10
sg6
I29
sg7
I41
sg8
g102
sg19
I5
sa(dp2074
g2
I50
sg3
I50
sg4
I10
sg5
I10
sg6
I63
sg7
I44
sg8
g31
sg19
I5
sa(dp2075
g2
I50
sg3
I50
sg4
I10
sg5
I10
sg6
I21
sg7
I48
sg8
g136
sg19
I5
sa(dp2076
g2
I50
sg3
I50
sg4
I10
sg5
I10
sg6
I64
sg7
I48
sg8
g224
sg19
I5
sa(dp2077
g2
I50
sg3
I50
sg4
I10
sg5
I10
sg6
I53
sg7
I42
sg8
g132
sg19
I5
sa(dp2078
g2
I50
sg3
I50
sg4
I10
sg5
I10
sg6
I61
sg7
I47
sg8
g136
sg19
I5
sa(dp2079
g2
I50
sg3
I50
sg4
I10
sg5
I10
sg6
I40
sg7
I56
sg8
g64
sg19
I5
sa(dp2080
g2
I50
sg3
I50
sg4
I10
sg5
I10
sg6
I46
sg7
I40
sg8
g168
sg19
I5
sa(dp2081
g2
I50
sg3
I50
sg4
I10
sg5
I10
sg6
I38
sg7
I56
sg8
g60
sg19
I5
sa(dp2082
g2
I50
sg3
I50
sg4
I10
sg5
I10
sg6
I32
sg7
I58
sg8
g31
sg19
I5
sa(dp2083
g2
I50
sg3
I50
sg4
I10
sg5
I10
sg6
I64
sg7
I49
sg8
g118
sg19
I5
sa(dp2084
g2
I50
sg3
I50
sg4
I10
sg5
I10
sg6
I47
sg7
I29
sg8
g132
sg19
I5
sa(dp2085
g2
I50
sg3
I50
sg4
I10
sg5
I10
sg6
I40
sg7
I54
sg8
g113
sg19
I5
sa(dp2086
g2
I50
sg3
I50
sg4
I10
sg5
I10
sg6
I47
sg7
I59
sg8
g179
sg19
I5
sa(dp2087
g2
I50
sg3
I50
sg4
I10
sg5
I10
sg6
I62
sg7
I34
sg8
g224
sg19
I5
sa(dp2088
g2
I50
sg3
I50
sg4
I10
sg5
I10
sg6
I28
sg7
I63
sg8
g18
sg19
I5
sa(dp2089
g2
I50
sg3
I50
sg4
I10
sg5
I10
sg6
I36
sg7
I19
sg8
g48
sg19
I5
sa(dp2090
g2
I50
sg3
I50
sg4
I10
sg5
I10
sg6
I30
sg7
I26
sg8
g218
sg19
I5
sa(dp2091
g2
I50
sg3
I50
sg4
I10
sg5
I10
sg6
I45
sg7
I18
sg8
g56
sg19
I5
sa(dp2092
g2
I50
sg3
I50
sg4
I10
sg5
I10
sg6
I20
sg7
I29
sg8
g218
sg19
I5
sa(dp2093
g2
I50
sg3
I50
sg4
I10
sg5
I10
sg6
I60
sg7
I50
sg8
g64
sg19
I5
sa(dp2094
g2
I50
sg3
I50
sg4
I10
sg5
I10
sg6
I30
sg7
I64
sg8
g108
sg19
I5
sa(dp2095
g2
I50
sg3
I50
sg4
I10
sg5
I10
sg6
I55
sg7
I17
sg8
g102
sg19
I5
sa(dp2096
g2
I50
sg3
I50
sg4
I10
sg5
I10
sg6
I47
sg7
I43
sg8
g168
sg19
I5
sa(dp2097
g2
I50
sg3
I50
sg4
I10
sg5
I10
sg6
I61
sg7
I61
sg8
g248
sg19
I5
sa(dp2098
g2
I50
sg3
I50
sg4
I10
sg5
I10
sg6
I47
sg7
I41
sg8
g39
sg19
I5
sa(dp2099
g2
I50
sg3
I50
sg4
I10
sg5
I10
sg6
I37
sg7
I48
sg8
g94
sg19
I5
sa(dp2100
g2
I50
sg3
I50
sg4
I10
sg5
I10
sg6
I18
sg7
I55
sg8
g118
sg19
I5
sa(dp2101
g2
I50
sg3
I50
sg4
I10
sg5
I10
sg6
I29
sg7
I27
sg8
g23
sg19
I5
sa(dp2102
g2
I50
sg3
I50
sg4
I10
sg5
I10
sg6
I27
sg7
I38
sg8
g164
sg19
I5
sa(dp2103
g2
I50
sg3
I50
sg4
I10
sg5
I10
sg6
I28
sg7
I19
sg8
g155
sg19
I5
sa(dp2104
g2
I50
sg3
I50
sg4
I10
sg5
I10
sg6
I40
sg7
I21
sg8
g48
sg19
I5
sa(dp2105
g2
I50
sg3
I50
sg4
I10
sg5
I10
sg6
I21
sg7
I24
sg8
g60
sg19
I5
sa(dp2106
g2
I50
sg3
I50
sg4
I10
sg5
I10
sg6
I50
sg7
I27
sg8
g98
sg19
I5
sa(dp2107
g2
I50
sg3
I50
sg4
I10
sg5
I10
sg6
I34
sg7
I45
sg8
g248
sg19
I5
sa(dp2108
g2
I50
sg3
I50
sg4
I10
sg5
I10
sg6
I32
sg7
I56
sg8
g248
sg19
I5
sa(dp2109
g2
I50
sg3
I50
sg4
I10
sg5
I10
sg6
I35
sg7
I49
sg8
g126
sg19
I5
sa(dp2110
g2
I50
sg3
I50
sg4
I10
sg5
I10
sg6
I54
sg7
I44
sg8
g168
sg19
I5
sa(dp2111
g2
I50
sg3
I50
sg4
I10
sg5
I10
sg6
I44
sg7
I57
sg8
g318
sg19
I5
sa(dp2112
g2
I50
sg3
I50
sg4
I10
sg5
I10
sg6
I55
sg7
I16
sg8
g218
sg19
I5
sa(dp2113
g2
I50
sg3
I50
sg4
I10
sg5
I10
sg6
I47
sg7
I36
sg8
g64
sg19
I5
sa(dp2114
g2
I50
sg3
I50
sg4
I10
sg5
I10
sg6
I59
sg7
I56
sg8
g76
sg19
I5
sa(dp2115
g2
I50
sg3
I50
sg4
I10
sg5
I10
sg6
I38
sg7
I58
sg8
g27
sg19
I5
sa(dp2116
g2
I50
sg3
I50
sg4
I10
sg5
I10
sg6
I34
sg7
I57
sg8
g164
sg19
I5
sa(dp2117
g2
I50
sg3
I50
sg4
I10
sg5
I10
sg6
I50
sg7
I50
sg8
g76
sg19
I5
sa(dp2118
g2
I50
sg3
I50
sg4
I10
sg5
I10
sg6
I16
sg7
I51
sg8
g168
sg19
I5
sa(dp2119
g2
I50
sg3
I50
sg4
I10
sg5
I10
sg6
I17
sg7
I27
sg8
g118
sg19
I5
sa(dp2120
g2
I50
sg3
I50
sg4
I10
sg5
I10
sg6
I45
sg7
I44
sg8
g168
sg19
I5
sa(dp2121
g2
I50
sg3
I50
sg4
I10
sg5
I10
sg6
I46
sg7
I16
sg8
g98
sg19
I5
sa(dp2122
g2
I50
sg3
I50
sg4
I10
sg5
I10
sg6
I54
sg7
I20
sg8
g23
sg19
I5
sa(dp2123
g2
I50
sg3
I50
sg4
I10
sg5
I10
sg6
I41
sg7
I38
sg8
g94
sg19
I5
sa(dp2124
g2
I50
sg3
I50
sg4
I10
sg5
I10
sg6
I42
sg7
I46
sg8
g94
sg19
I5
sa(dp2125
g2
I50
sg3
I50
sg4
I10
sg5
I10
sg6
I38
sg7
I55
sg8
g108
sg19
I5
sa(dp2126
g2
I50
sg3
I50
sg4
I10
sg5
I10
sg6
I21
sg7
I45
sg8
g48
sg19
I5
sa(dp2127
g2
I50
sg3
I50
sg4
I10
sg5
I10
sg6
I57
sg7
I25
sg8
g43
sg19
I5
sa(dp2128
g2
I50
sg3
I50
sg4
I10
sg5
I10
sg6
I41
sg7
I40
sg8
g68
sg19
I5
sa(dp2129
g2
I50
sg3
I50
sg4
I10
sg5
I10
sg6
I30
sg7
I64
sg8
g155
sg19
I5
sa.